EXPORTS
    _ZN4Foam10FieldFieldINS_5FieldENS_6VectorIdEEE6negateEv @1
    _ZN4Foam10FieldFieldINS_5FieldEdE17NewCalculatedTypeIdEENS_3tmpIS2_EERKNS0_IS1_T_EE @2
    _ZN4Foam10FieldFieldINS_5FieldEdE6negateEv @3
    _ZN4Foam10FieldFieldINS_5FieldEdEaSERKNS_3tmpIS2_EE @4
    _ZN4Foam10FieldFieldINS_5FieldEdEmIERKS2_ @5
    _ZN4Foam10FieldFieldINS_5FieldEdEpLERKS2_ @6
    _ZN4Foam10dictionary18lookupOrAddDefaultIdEET_RKNS_4wordERKS2_bb @7
    _ZN4Foam11VectorSpaceINS_10SymmTensorIdEEdLi6EEC2ERNS_7IstreamE @8
    _ZN4Foam11VectorSpaceINS_15SphericalTensorIdEEdLi1EEC2ERNS_7IstreamE @9
    _ZN4Foam11VectorSpaceINS_6TensorIdEEdLi9EEC2ERNS_7IstreamE @10
    _ZN4Foam11checkMethodINS_6VectorIdEEEEvRKNS_8fvMatrixIT_EERKNS_16DimensionedFieldIS4_NS_7volMeshEEEPKc @11
    _ZN4Foam11checkMethodIdEEvRKNS_8fvMatrixIT_EERKNS_16DimensionedFieldIS2_NS_7volMeshEEEPKc @12
    _ZN4Foam11checkMethodIdEEvRKNS_8fvMatrixIT_EES5_PKc @13
    _ZN4Foam12fvPatchFieldINS_10SymmTensorIdEEE12initEvaluateENS_8UPstream10commsTypesE @14
    _ZN4Foam12fvPatchFieldINS_10SymmTensorIdEEE12updateCoeffsERKNS_5FieldIdEE @15
    _ZN4Foam12fvPatchFieldINS_10SymmTensorIdEEE12updateCoeffsEv @16
    _ZN4Foam12fvPatchFieldINS_10SymmTensorIdEEE16manipulateMatrixERNS_8fvMatrixIS2_EE @17
    _ZN4Foam12fvPatchFieldINS_10SymmTensorIdEEE16manipulateMatrixERNS_8fvMatrixIS2_EERKNS_5FieldIdEE @18
    _ZN4Foam12fvPatchFieldINS_10SymmTensorIdEEE3NewERKNS_7fvPatchERKNS_16DimensionedFieldIS2_NS_7volMeshEEERKNS_10dictionaryE @19
    _ZN4Foam12fvPatchFieldINS_10SymmTensorIdEEE4rmapERKS3_RKNS_4ListIiEE @20
    _ZN4Foam12fvPatchFieldINS_10SymmTensorIdEEE7autoMapERKNS_18fvPatchFieldMapperE @21
    _ZN4Foam12fvPatchFieldINS_10SymmTensorIdEEE8evaluateENS_8UPstream10commsTypesE @22
    _ZN4Foam12fvPatchFieldINS_10SymmTensorIdEEED0Ev @23
    _ZN4Foam12fvPatchFieldINS_10SymmTensorIdEEED1Ev @24
    _ZN4Foam12fvPatchFieldINS_10SymmTensorIdEEEaSERKNS_5UListIS2_EE @25
    _ZN4Foam12fvPatchFieldINS_10SymmTensorIdEEEaSERKS2_ @26
    _ZN4Foam12fvPatchFieldINS_10SymmTensorIdEEEaSERKS3_ @27
    _ZN4Foam12fvPatchFieldINS_10SymmTensorIdEEEdVERKNS0_IdEE @28
    _ZN4Foam12fvPatchFieldINS_10SymmTensorIdEEEdVERKNS_5FieldIdEE @29
    _ZN4Foam12fvPatchFieldINS_10SymmTensorIdEEEdVEd @30
    _ZN4Foam12fvPatchFieldINS_10SymmTensorIdEEEeqERKNS_5FieldIS2_EE @31
    _ZN4Foam12fvPatchFieldINS_10SymmTensorIdEEEeqERKS2_ @32
    _ZN4Foam12fvPatchFieldINS_10SymmTensorIdEEEeqERKS3_ @33
    _ZN4Foam12fvPatchFieldINS_10SymmTensorIdEEEmIERKNS_5FieldIS2_EE @34
    _ZN4Foam12fvPatchFieldINS_10SymmTensorIdEEEmIERKS2_ @35
    _ZN4Foam12fvPatchFieldINS_10SymmTensorIdEEEmIERKS3_ @36
    _ZN4Foam12fvPatchFieldINS_10SymmTensorIdEEEmLERKNS0_IdEE @37
    _ZN4Foam12fvPatchFieldINS_10SymmTensorIdEEEmLERKNS_5FieldIdEE @38
    _ZN4Foam12fvPatchFieldINS_10SymmTensorIdEEEmLEd @39
    _ZN4Foam12fvPatchFieldINS_10SymmTensorIdEEEpLERKNS_5FieldIS2_EE @40
    _ZN4Foam12fvPatchFieldINS_10SymmTensorIdEEEpLERKS2_ @41
    _ZN4Foam12fvPatchFieldINS_10SymmTensorIdEEEpLERKS3_ @42
    _ZN4Foam12fvPatchFieldINS_15SphericalTensorIdEEE12initEvaluateENS_8UPstream10commsTypesE @43
    _ZN4Foam12fvPatchFieldINS_15SphericalTensorIdEEE12updateCoeffsERKNS_5FieldIdEE @44
    _ZN4Foam12fvPatchFieldINS_15SphericalTensorIdEEE12updateCoeffsEv @45
    _ZN4Foam12fvPatchFieldINS_15SphericalTensorIdEEE16manipulateMatrixERNS_8fvMatrixIS2_EE @46
    _ZN4Foam12fvPatchFieldINS_15SphericalTensorIdEEE16manipulateMatrixERNS_8fvMatrixIS2_EERKNS_5FieldIdEE @47
    _ZN4Foam12fvPatchFieldINS_15SphericalTensorIdEEE3NewERKNS_7fvPatchERKNS_16DimensionedFieldIS2_NS_7volMeshEEERKNS_10dictionaryE @48
    _ZN4Foam12fvPatchFieldINS_15SphericalTensorIdEEE4rmapERKS3_RKNS_4ListIiEE @49
    _ZN4Foam12fvPatchFieldINS_15SphericalTensorIdEEE7autoMapERKNS_18fvPatchFieldMapperE @50
    _ZN4Foam12fvPatchFieldINS_15SphericalTensorIdEEE8evaluateENS_8UPstream10commsTypesE @51
    _ZN4Foam12fvPatchFieldINS_15SphericalTensorIdEEED0Ev @52
    _ZN4Foam12fvPatchFieldINS_15SphericalTensorIdEEED1Ev @53
    _ZN4Foam12fvPatchFieldINS_15SphericalTensorIdEEEaSERKNS_5UListIS2_EE @54
    _ZN4Foam12fvPatchFieldINS_15SphericalTensorIdEEEaSERKS2_ @55
    _ZN4Foam12fvPatchFieldINS_15SphericalTensorIdEEEaSERKS3_ @56
    _ZN4Foam12fvPatchFieldINS_15SphericalTensorIdEEEdVERKNS0_IdEE @57
    _ZN4Foam12fvPatchFieldINS_15SphericalTensorIdEEEdVERKNS_5FieldIdEE @58
    _ZN4Foam12fvPatchFieldINS_15SphericalTensorIdEEEdVEd @59
    _ZN4Foam12fvPatchFieldINS_15SphericalTensorIdEEEeqERKNS_5FieldIS2_EE @60
    _ZN4Foam12fvPatchFieldINS_15SphericalTensorIdEEEeqERKS2_ @61
    _ZN4Foam12fvPatchFieldINS_15SphericalTensorIdEEEeqERKS3_ @62
    _ZN4Foam12fvPatchFieldINS_15SphericalTensorIdEEEmIERKNS_5FieldIS2_EE @63
    _ZN4Foam12fvPatchFieldINS_15SphericalTensorIdEEEmIERKS2_ @64
    _ZN4Foam12fvPatchFieldINS_15SphericalTensorIdEEEmIERKS3_ @65
    _ZN4Foam12fvPatchFieldINS_15SphericalTensorIdEEEmLERKNS0_IdEE @66
    _ZN4Foam12fvPatchFieldINS_15SphericalTensorIdEEEmLERKNS_5FieldIdEE @67
    _ZN4Foam12fvPatchFieldINS_15SphericalTensorIdEEEmLEd @68
    _ZN4Foam12fvPatchFieldINS_15SphericalTensorIdEEEpLERKNS_5FieldIS2_EE @69
    _ZN4Foam12fvPatchFieldINS_15SphericalTensorIdEEEpLERKS2_ @70
    _ZN4Foam12fvPatchFieldINS_15SphericalTensorIdEEEpLERKS3_ @71
    _ZN4Foam12fvPatchFieldINS_6TensorIdEEE12initEvaluateENS_8UPstream10commsTypesE @72
    _ZN4Foam12fvPatchFieldINS_6TensorIdEEE12updateCoeffsERKNS_5FieldIdEE @73
    _ZN4Foam12fvPatchFieldINS_6TensorIdEEE12updateCoeffsEv @74
    _ZN4Foam12fvPatchFieldINS_6TensorIdEEE16manipulateMatrixERNS_8fvMatrixIS2_EE @75
    _ZN4Foam12fvPatchFieldINS_6TensorIdEEE16manipulateMatrixERNS_8fvMatrixIS2_EERKNS_5FieldIdEE @76
    _ZN4Foam12fvPatchFieldINS_6TensorIdEEE3NewERKNS_7fvPatchERKNS_16DimensionedFieldIS2_NS_7volMeshEEERKNS_10dictionaryE @77
    _ZN4Foam12fvPatchFieldINS_6TensorIdEEE4rmapERKS3_RKNS_4ListIiEE @78
    _ZN4Foam12fvPatchFieldINS_6TensorIdEEE7autoMapERKNS_18fvPatchFieldMapperE @79
    _ZN4Foam12fvPatchFieldINS_6TensorIdEEE8evaluateENS_8UPstream10commsTypesE @80
    _ZN4Foam12fvPatchFieldINS_6TensorIdEEED0Ev @81
    _ZN4Foam12fvPatchFieldINS_6TensorIdEEED1Ev @82
    _ZN4Foam12fvPatchFieldINS_6TensorIdEEEaSERKNS_5UListIS2_EE @83
    _ZN4Foam12fvPatchFieldINS_6TensorIdEEEaSERKS2_ @84
    _ZN4Foam12fvPatchFieldINS_6TensorIdEEEaSERKS3_ @85
    _ZN4Foam12fvPatchFieldINS_6TensorIdEEEdVERKNS0_IdEE @86
    _ZN4Foam12fvPatchFieldINS_6TensorIdEEEdVERKNS_5FieldIdEE @87
    _ZN4Foam12fvPatchFieldINS_6TensorIdEEEdVEd @88
    _ZN4Foam12fvPatchFieldINS_6TensorIdEEEeqERKNS_5FieldIS2_EE @89
    _ZN4Foam12fvPatchFieldINS_6TensorIdEEEeqERKS2_ @90
    _ZN4Foam12fvPatchFieldINS_6TensorIdEEEeqERKS3_ @91
    _ZN4Foam12fvPatchFieldINS_6TensorIdEEEmIERKNS_5FieldIS2_EE @92
    _ZN4Foam12fvPatchFieldINS_6TensorIdEEEmIERKS2_ @93
    _ZN4Foam12fvPatchFieldINS_6TensorIdEEEmIERKS3_ @94
    _ZN4Foam12fvPatchFieldINS_6TensorIdEEEmLERKNS0_IdEE @95
    _ZN4Foam12fvPatchFieldINS_6TensorIdEEEmLERKNS_5FieldIdEE @96
    _ZN4Foam12fvPatchFieldINS_6TensorIdEEEmLEd @97
    _ZN4Foam12fvPatchFieldINS_6TensorIdEEEpLERKNS_5FieldIS2_EE @98
    _ZN4Foam12fvPatchFieldINS_6TensorIdEEEpLERKS2_ @99
    _ZN4Foam12fvPatchFieldINS_6TensorIdEEEpLERKS3_ @100
    _ZN4Foam12fvPatchFieldINS_6VectorIdEEE12initEvaluateENS_8UPstream10commsTypesE @101
    _ZN4Foam12fvPatchFieldINS_6VectorIdEEE12updateCoeffsERKNS_5FieldIdEE @102
    _ZN4Foam12fvPatchFieldINS_6VectorIdEEE12updateCoeffsEv @103
    _ZN4Foam12fvPatchFieldINS_6VectorIdEEE16manipulateMatrixERNS_8fvMatrixIS2_EE @104
    _ZN4Foam12fvPatchFieldINS_6VectorIdEEE16manipulateMatrixERNS_8fvMatrixIS2_EERKNS_5FieldIdEE @105
    _ZN4Foam12fvPatchFieldINS_6VectorIdEEE4rmapERKS3_RKNS_4ListIiEE @106
    _ZN4Foam12fvPatchFieldINS_6VectorIdEEE7autoMapERKNS_18fvPatchFieldMapperE @107
    _ZN4Foam12fvPatchFieldINS_6VectorIdEEE8evaluateENS_8UPstream10commsTypesE @108
    _ZN4Foam12fvPatchFieldINS_6VectorIdEEED0Ev @109
    _ZN4Foam12fvPatchFieldINS_6VectorIdEEED1Ev @110
    _ZN4Foam12fvPatchFieldINS_6VectorIdEEEaSERKNS_5UListIS2_EE @111
    _ZN4Foam12fvPatchFieldINS_6VectorIdEEEaSERKS2_ @112
    _ZN4Foam12fvPatchFieldINS_6VectorIdEEEaSERKS3_ @113
    _ZN4Foam12fvPatchFieldINS_6VectorIdEEEdVERKNS0_IdEE @114
    _ZN4Foam12fvPatchFieldINS_6VectorIdEEEdVERKNS_5FieldIdEE @115
    _ZN4Foam12fvPatchFieldINS_6VectorIdEEEdVEd @116
    _ZN4Foam12fvPatchFieldINS_6VectorIdEEEeqERKNS_5FieldIS2_EE @117
    _ZN4Foam12fvPatchFieldINS_6VectorIdEEEeqERKS2_ @118
    _ZN4Foam12fvPatchFieldINS_6VectorIdEEEeqERKS3_ @119
    _ZN4Foam12fvPatchFieldINS_6VectorIdEEEmIERKNS_5FieldIS2_EE @120
    _ZN4Foam12fvPatchFieldINS_6VectorIdEEEmIERKS2_ @121
    _ZN4Foam12fvPatchFieldINS_6VectorIdEEEmIERKS3_ @122
    _ZN4Foam12fvPatchFieldINS_6VectorIdEEEmLERKNS0_IdEE @123
    _ZN4Foam12fvPatchFieldINS_6VectorIdEEEmLERKNS_5FieldIdEE @124
    _ZN4Foam12fvPatchFieldINS_6VectorIdEEEmLEd @125
    _ZN4Foam12fvPatchFieldINS_6VectorIdEEEpLERKNS_5FieldIS2_EE @126
    _ZN4Foam12fvPatchFieldINS_6VectorIdEEEpLERKS2_ @127
    _ZN4Foam12fvPatchFieldINS_6VectorIdEEEpLERKS3_ @128
    _ZN4Foam12fvPatchFieldIdE12initEvaluateENS_8UPstream10commsTypesE @129
    _ZN4Foam12fvPatchFieldIdE12updateCoeffsERKNS_5FieldIdEE @130
    _ZN4Foam12fvPatchFieldIdE12updateCoeffsEv @131
    _ZN4Foam12fvPatchFieldIdE16manipulateMatrixERNS_8fvMatrixIdEE @132
    _ZN4Foam12fvPatchFieldIdE16manipulateMatrixERNS_8fvMatrixIdEERKNS_5FieldIdEE @133
    _ZN4Foam12fvPatchFieldIdE3NewERKNS_7fvPatchERKNS_16DimensionedFieldIdNS_7volMeshEEERKNS_10dictionaryE @134
    _ZN4Foam12fvPatchFieldIdE4rmapERKS1_RKNS_4ListIiEE @135
    _ZN4Foam12fvPatchFieldIdE7autoMapERKNS_18fvPatchFieldMapperE @136
    _ZN4Foam12fvPatchFieldIdE8evaluateENS_8UPstream10commsTypesE @137
    _ZN4Foam12fvPatchFieldIdED0Ev @138
    _ZN4Foam12fvPatchFieldIdED1Ev @139
    _ZN4Foam12fvPatchFieldIdEaSERKNS_5UListIdEE @140
    _ZN4Foam12fvPatchFieldIdEaSERKS1_ @141
    _ZN4Foam12fvPatchFieldIdEaSERKd @142
    _ZN4Foam12fvPatchFieldIdEdVERKNS_5FieldIdEE @143
    _ZN4Foam12fvPatchFieldIdEdVERKS1_ @144
    _ZN4Foam12fvPatchFieldIdEdVEd @145
    _ZN4Foam12fvPatchFieldIdEeqERKNS_5FieldIdEE @146
    _ZN4Foam12fvPatchFieldIdEeqERKS1_ @147
    _ZN4Foam12fvPatchFieldIdEeqERKd @148
    _ZN4Foam12fvPatchFieldIdEmIERKNS_5FieldIdEE @149
    _ZN4Foam12fvPatchFieldIdEmIERKS1_ @150
    _ZN4Foam12fvPatchFieldIdEmIERKd @151
    _ZN4Foam12fvPatchFieldIdEmLERKNS_5FieldIdEE @152
    _ZN4Foam12fvPatchFieldIdEmLERKS1_ @153
    _ZN4Foam12fvPatchFieldIdEmLEd @154
    _ZN4Foam12fvPatchFieldIdEpLERKNS_5FieldIdEE @155
    _ZN4Foam12fvPatchFieldIdEpLERKS1_ @156
    _ZN4Foam12fvPatchFieldIdEpLERKd @157
    _ZN4Foam13IStringStreamD1Ev @158
    _ZN4Foam13OStringStreamD1Ev @159
    _ZN4Foam13fvsPatchFieldINS_6VectorIdEEE4rmapERKS3_RKNS_4ListIiEE @160
    _ZN4Foam13fvsPatchFieldINS_6VectorIdEEE7autoMapERKNS_18fvPatchFieldMapperE @161
    _ZN4Foam13fvsPatchFieldINS_6VectorIdEEED0Ev @162
    _ZN4Foam13fvsPatchFieldINS_6VectorIdEEED1Ev @163
    _ZN4Foam13fvsPatchFieldINS_6VectorIdEEEaSERKNS_5UListIS2_EE @164
    _ZN4Foam13fvsPatchFieldINS_6VectorIdEEEaSERKS2_ @165
    _ZN4Foam13fvsPatchFieldINS_6VectorIdEEEaSERKS3_ @166
    _ZN4Foam13fvsPatchFieldINS_6VectorIdEEEdVERKNS0_IdEE @167
    _ZN4Foam13fvsPatchFieldINS_6VectorIdEEEdVERKNS_5FieldIdEE @168
    _ZN4Foam13fvsPatchFieldINS_6VectorIdEEEdVEd @169
    _ZN4Foam13fvsPatchFieldINS_6VectorIdEEEeqERKNS_5FieldIS2_EE @170
    _ZN4Foam13fvsPatchFieldINS_6VectorIdEEEeqERKS2_ @171
    _ZN4Foam13fvsPatchFieldINS_6VectorIdEEEeqERKS3_ @172
    _ZN4Foam13fvsPatchFieldINS_6VectorIdEEEmIERKNS_5FieldIS2_EE @173
    _ZN4Foam13fvsPatchFieldINS_6VectorIdEEEmIERKS2_ @174
    _ZN4Foam13fvsPatchFieldINS_6VectorIdEEEmIERKS3_ @175
    _ZN4Foam13fvsPatchFieldINS_6VectorIdEEEmLERKNS0_IdEE @176
    _ZN4Foam13fvsPatchFieldINS_6VectorIdEEEmLERKNS_5FieldIdEE @177
    _ZN4Foam13fvsPatchFieldINS_6VectorIdEEEmLEd @178
    _ZN4Foam13fvsPatchFieldINS_6VectorIdEEEpLERKNS_5FieldIS2_EE @179
    _ZN4Foam13fvsPatchFieldINS_6VectorIdEEEpLERKS2_ @180
    _ZN4Foam13fvsPatchFieldINS_6VectorIdEEEpLERKS3_ @181
    _ZN4Foam13fvsPatchFieldIdE3NewERKNS_7fvPatchERKNS_16DimensionedFieldIdNS_11surfaceMeshEEERKNS_10dictionaryE @182
    _ZN4Foam13fvsPatchFieldIdE4rmapERKS1_RKNS_4ListIiEE @183
    _ZN4Foam13fvsPatchFieldIdE7autoMapERKNS_18fvPatchFieldMapperE @184
    _ZN4Foam13fvsPatchFieldIdED0Ev @185
    _ZN4Foam13fvsPatchFieldIdED1Ev @186
    _ZN4Foam13fvsPatchFieldIdEaSERKNS_5UListIdEE @187
    _ZN4Foam13fvsPatchFieldIdEaSERKS1_ @188
    _ZN4Foam13fvsPatchFieldIdEaSERKd @189
    _ZN4Foam13fvsPatchFieldIdEdVERKNS_5FieldIdEE @190
    _ZN4Foam13fvsPatchFieldIdEdVERKS1_ @191
    _ZN4Foam13fvsPatchFieldIdEdVEd @192
    _ZN4Foam13fvsPatchFieldIdEeqERKNS_5FieldIdEE @193
    _ZN4Foam13fvsPatchFieldIdEeqERKS1_ @194
    _ZN4Foam13fvsPatchFieldIdEeqERKd @195
    _ZN4Foam13fvsPatchFieldIdEmIERKNS_5FieldIdEE @196
    _ZN4Foam13fvsPatchFieldIdEmIERKS1_ @197
    _ZN4Foam13fvsPatchFieldIdEmIERKd @198
    _ZN4Foam13fvsPatchFieldIdEmLERKNS_5FieldIdEE @199
    _ZN4Foam13fvsPatchFieldIdEmLERKS1_ @200
    _ZN4Foam13fvsPatchFieldIdEmLEd @201
    _ZN4Foam13fvsPatchFieldIdEpLERKNS_5FieldIdEE @202
    _ZN4Foam13fvsPatchFieldIdEpLERKS1_ @203
    _ZN4Foam13fvsPatchFieldIdEpLERKd @204
    _ZN4Foam14DiagonalSolverIdddE4readERKNS_10dictionaryE @205
    _ZN4Foam14DiagonalSolverIdddED0Ev @206
    _ZN4Foam14DiagonalSolverIdddED1Ev @207
    _ZN4Foam14GeometricFieldINS_10SymmTensorIdEENS_12fvPatchFieldENS_7volMeshEE10readFieldsERKNS_10dictionaryE @208
    _ZN4Foam14GeometricFieldINS_10SymmTensorIdEENS_12fvPatchFieldENS_7volMeshEE10readFieldsEv @209
    _ZN4Foam14GeometricFieldINS_10SymmTensorIdEENS_12fvPatchFieldENS_7volMeshEE13readIfPresentEv @210
    _ZN4Foam14GeometricFieldINS_10SymmTensorIdEENS_12fvPatchFieldENS_7volMeshEE20readOldTimeIfPresentEv @211
    _ZN4Foam14GeometricFieldINS_10SymmTensorIdEENS_12fvPatchFieldENS_7volMeshEE22GeometricBoundaryField9readFieldERKNS_16DimensionedFieldIS2_S4_EERKNS_10dictionaryE @212
    _ZN4Foam14GeometricFieldINS_10SymmTensorIdEENS_12fvPatchFieldENS_7volMeshEE22GeometricBoundaryFieldC1ERKNS_14fvBoundaryMeshERKNS_16DimensionedFieldIS2_S4_EERKNS_4wordE @213
    _ZN4Foam14GeometricFieldINS_10SymmTensorIdEENS_12fvPatchFieldENS_7volMeshEE22GeometricBoundaryFieldC1ERKNS_16DimensionedFieldIS2_S4_EERKS6_ @214
    _ZN4Foam14GeometricFieldINS_10SymmTensorIdEENS_12fvPatchFieldENS_7volMeshEEC1ERKNS_3tmpIS5_EE @215
    _ZN4Foam14GeometricFieldINS_10SymmTensorIdEENS_12fvPatchFieldENS_7volMeshEEC1ERKNS_4wordERKS5_ @216
    _ZN4Foam14GeometricFieldINS_10SymmTensorIdEENS_12fvPatchFieldENS_7volMeshEEC1ERKNS_8IOobjectERKNS_6fvMeshE @217
    _ZN4Foam14GeometricFieldINS_10SymmTensorIdEENS_12fvPatchFieldENS_7volMeshEEC1ERKNS_8IOobjectERKNS_6fvMeshERKNS_12dimensionSetERKNS_4wordE @218
    _ZN4Foam14GeometricFieldINS_10SymmTensorIdEENS_12fvPatchFieldENS_7volMeshEEC1ERKNS_8IOobjectERKS5_ @219
    _ZN4Foam14GeometricFieldINS_10SymmTensorIdEENS_12fvPatchFieldENS_7volMeshEEC1ERKS5_ @220
    _ZN4Foam14GeometricFieldINS_10SymmTensorIdEENS_12fvPatchFieldENS_7volMeshEED0Ev @221
    _ZN4Foam14GeometricFieldINS_10SymmTensorIdEENS_12fvPatchFieldENS_7volMeshEED1Ev @222
    _ZN4Foam14GeometricFieldINS_10SymmTensorIdEENS_12fvPatchFieldENS_7volMeshEEeqERKNS_3tmpIS5_EE @223
    _ZN4Foam14GeometricFieldINS_15SphericalTensorIdEENS_12fvPatchFieldENS_7volMeshEE10readFieldsERKNS_10dictionaryE @224
    _ZN4Foam14GeometricFieldINS_15SphericalTensorIdEENS_12fvPatchFieldENS_7volMeshEE10readFieldsEv @225
    _ZN4Foam14GeometricFieldINS_15SphericalTensorIdEENS_12fvPatchFieldENS_7volMeshEE13readIfPresentEv @226
    _ZN4Foam14GeometricFieldINS_15SphericalTensorIdEENS_12fvPatchFieldENS_7volMeshEE20readOldTimeIfPresentEv @227
    _ZN4Foam14GeometricFieldINS_15SphericalTensorIdEENS_12fvPatchFieldENS_7volMeshEE22GeometricBoundaryField9readFieldERKNS_16DimensionedFieldIS2_S4_EERKNS_10dictionaryE @228
    _ZN4Foam14GeometricFieldINS_15SphericalTensorIdEENS_12fvPatchFieldENS_7volMeshEE22GeometricBoundaryFieldC1ERKNS_14fvBoundaryMeshERKNS_16DimensionedFieldIS2_S4_EERKNS_4wordE @229
    _ZN4Foam14GeometricFieldINS_15SphericalTensorIdEENS_12fvPatchFieldENS_7volMeshEE22GeometricBoundaryFieldC1ERKNS_16DimensionedFieldIS2_S4_EERKS6_ @230
    _ZN4Foam14GeometricFieldINS_15SphericalTensorIdEENS_12fvPatchFieldENS_7volMeshEEC1ERKNS_4wordERKS5_ @231
    _ZN4Foam14GeometricFieldINS_15SphericalTensorIdEENS_12fvPatchFieldENS_7volMeshEEC1ERKNS_8IOobjectERKNS_6fvMeshE @232
    _ZN4Foam14GeometricFieldINS_15SphericalTensorIdEENS_12fvPatchFieldENS_7volMeshEEC1ERKNS_8IOobjectERKS5_ @233
    _ZN4Foam14GeometricFieldINS_15SphericalTensorIdEENS_12fvPatchFieldENS_7volMeshEED0Ev @234
    _ZN4Foam14GeometricFieldINS_15SphericalTensorIdEENS_12fvPatchFieldENS_7volMeshEED1Ev @235
    _ZN4Foam14GeometricFieldINS_15SphericalTensorIdEENS_12fvPatchFieldENS_7volMeshEEeqERKNS_3tmpIS5_EE @236
    _ZN4Foam14GeometricFieldINS_6TensorIdEENS_12fvPatchFieldENS_7volMeshEE10readFieldsERKNS_10dictionaryE @237
    _ZN4Foam14GeometricFieldINS_6TensorIdEENS_12fvPatchFieldENS_7volMeshEE10readFieldsEv @238
    _ZN4Foam14GeometricFieldINS_6TensorIdEENS_12fvPatchFieldENS_7volMeshEE13readIfPresentEv @239
    _ZN4Foam14GeometricFieldINS_6TensorIdEENS_12fvPatchFieldENS_7volMeshEE20readOldTimeIfPresentEv @240
    _ZN4Foam14GeometricFieldINS_6TensorIdEENS_12fvPatchFieldENS_7volMeshEE22GeometricBoundaryField9readFieldERKNS_16DimensionedFieldIS2_S4_EERKNS_10dictionaryE @241
    _ZN4Foam14GeometricFieldINS_6TensorIdEENS_12fvPatchFieldENS_7volMeshEE22GeometricBoundaryFieldC1ERKNS_14fvBoundaryMeshERKNS_16DimensionedFieldIS2_S4_EERKNS_4wordE @242
    _ZN4Foam14GeometricFieldINS_6TensorIdEENS_12fvPatchFieldENS_7volMeshEE22GeometricBoundaryFieldC1ERKNS_16DimensionedFieldIS2_S4_EERKS6_ @243
    _ZN4Foam14GeometricFieldINS_6TensorIdEENS_12fvPatchFieldENS_7volMeshEEC1ERKNS_3tmpIS5_EE @244
    _ZN4Foam14GeometricFieldINS_6TensorIdEENS_12fvPatchFieldENS_7volMeshEEC1ERKNS_4wordERKS5_ @245
    _ZN4Foam14GeometricFieldINS_6TensorIdEENS_12fvPatchFieldENS_7volMeshEEC1ERKNS_8IOobjectERKNS_6fvMeshE @246
    _ZN4Foam14GeometricFieldINS_6TensorIdEENS_12fvPatchFieldENS_7volMeshEEC1ERKNS_8IOobjectERKNS_6fvMeshERKNS_12dimensionSetERKNS_4wordE @247
    _ZN4Foam14GeometricFieldINS_6TensorIdEENS_12fvPatchFieldENS_7volMeshEEC1ERKNS_8IOobjectERKS5_ @248
    _ZN4Foam14GeometricFieldINS_6TensorIdEENS_12fvPatchFieldENS_7volMeshEEC1ERKS5_ @249
    _ZN4Foam14GeometricFieldINS_6TensorIdEENS_12fvPatchFieldENS_7volMeshEED0Ev @250
    _ZN4Foam14GeometricFieldINS_6TensorIdEENS_12fvPatchFieldENS_7volMeshEED1Ev @251
    _ZN4Foam14GeometricFieldINS_6TensorIdEENS_12fvPatchFieldENS_7volMeshEEeqERKNS_3tmpIS5_EE @252
    _ZN4Foam14GeometricFieldINS_6VectorIdEENS_12fvPatchFieldENS_7volMeshEE22GeometricBoundaryFieldC1ERKNS_16DimensionedFieldIS2_S4_EERKS6_ @253
    _ZN4Foam14GeometricFieldINS_6VectorIdEENS_12fvPatchFieldENS_7volMeshEEC1ERKS5_ @254
    _ZN4Foam14GeometricFieldINS_6VectorIdEENS_12fvPatchFieldENS_7volMeshEED0Ev @255
    _ZN4Foam14GeometricFieldINS_6VectorIdEENS_12fvPatchFieldENS_7volMeshEED1Ev @256
    _ZN4Foam14GeometricFieldINS_6VectorIdEENS_13fvsPatchFieldENS_11surfaceMeshEE22GeometricBoundaryFieldC1ERKNS_16DimensionedFieldIS2_S4_EERKS6_ @257
    _ZN4Foam14GeometricFieldINS_6VectorIdEENS_13fvsPatchFieldENS_11surfaceMeshEEC1ERKS5_ @258
    _ZN4Foam14GeometricFieldINS_6VectorIdEENS_13fvsPatchFieldENS_11surfaceMeshEED0Ev @259
    _ZN4Foam14GeometricFieldINS_6VectorIdEENS_13fvsPatchFieldENS_11surfaceMeshEED1Ev @260
    _ZN4Foam14GeometricFieldINS_6VectorIdEENS_13fvsPatchFieldENS_11surfaceMeshEEeqERKNS_3tmpIS5_EE @261
    _ZN4Foam14GeometricFieldIdNS_12fvPatchFieldENS_7volMeshEE10readFieldsERKNS_10dictionaryE @262
    _ZN4Foam14GeometricFieldIdNS_12fvPatchFieldENS_7volMeshEE10readFieldsEv @263
    _ZN4Foam14GeometricFieldIdNS_12fvPatchFieldENS_7volMeshEE13readIfPresentEv @264
    _ZN4Foam14GeometricFieldIdNS_12fvPatchFieldENS_7volMeshEE20readOldTimeIfPresentEv @265
    _ZN4Foam14GeometricFieldIdNS_12fvPatchFieldENS_7volMeshEE22GeometricBoundaryField8evaluateEv @266
    _ZN4Foam14GeometricFieldIdNS_12fvPatchFieldENS_7volMeshEE22GeometricBoundaryField9readFieldERKNS_16DimensionedFieldIdS2_EERKNS_10dictionaryE @267
    _ZN4Foam14GeometricFieldIdNS_12fvPatchFieldENS_7volMeshEE22GeometricBoundaryFieldC1ERKNS_14fvBoundaryMeshERKNS_16DimensionedFieldIdS2_EERKNS_4wordE @268
    _ZN4Foam14GeometricFieldIdNS_12fvPatchFieldENS_7volMeshEE22GeometricBoundaryFieldC1ERKNS_16DimensionedFieldIdS2_EERKS4_ @269
    _ZN4Foam14GeometricFieldIdNS_12fvPatchFieldENS_7volMeshEEC1ERKNS_3tmpIS3_EE @270
    _ZN4Foam14GeometricFieldIdNS_12fvPatchFieldENS_7volMeshEEC1ERKNS_4wordERKNS_3tmpIS3_EE @271
    _ZN4Foam14GeometricFieldIdNS_12fvPatchFieldENS_7volMeshEEC1ERKNS_4wordERKS3_ @272
    _ZN4Foam14GeometricFieldIdNS_12fvPatchFieldENS_7volMeshEEC1ERKNS_8IOobjectERKNS_6fvMeshE @273
    _ZN4Foam14GeometricFieldIdNS_12fvPatchFieldENS_7volMeshEEC1ERKNS_8IOobjectERKNS_6fvMeshERKNS_11dimensionedIdEERKNS_4wordE @274
    _ZN4Foam14GeometricFieldIdNS_12fvPatchFieldENS_7volMeshEEC1ERKNS_8IOobjectERKNS_6fvMeshERKNS_12dimensionSetERKNS_4wordE @275
    _ZN4Foam14GeometricFieldIdNS_12fvPatchFieldENS_7volMeshEEC1ERKNS_8IOobjectERKS3_ @276
    _ZN4Foam14GeometricFieldIdNS_12fvPatchFieldENS_7volMeshEEC1ERKS3_ @277
    _ZN4Foam14GeometricFieldIdNS_12fvPatchFieldENS_7volMeshEED0Ev @278
    _ZN4Foam14GeometricFieldIdNS_12fvPatchFieldENS_7volMeshEED1Ev @279
    _ZN4Foam14GeometricFieldIdNS_12fvPatchFieldENS_7volMeshEEaSERKNS_3tmpIS3_EE @280
    _ZN4Foam14GeometricFieldIdNS_12fvPatchFieldENS_7volMeshEEeqERKNS_3tmpIS3_EE @281
    _ZN4Foam14GeometricFieldIdNS_13fvsPatchFieldENS_11surfaceMeshEE10readFieldsERKNS_10dictionaryE @282
    _ZN4Foam14GeometricFieldIdNS_13fvsPatchFieldENS_11surfaceMeshEE10readFieldsEv @283
    _ZN4Foam14GeometricFieldIdNS_13fvsPatchFieldENS_11surfaceMeshEE13readIfPresentEv @284
    _ZN4Foam14GeometricFieldIdNS_13fvsPatchFieldENS_11surfaceMeshEE20readOldTimeIfPresentEv @285
    _ZN4Foam14GeometricFieldIdNS_13fvsPatchFieldENS_11surfaceMeshEE22GeometricBoundaryField9readFieldERKNS_16DimensionedFieldIdS2_EERKNS_10dictionaryE @286
    _ZN4Foam14GeometricFieldIdNS_13fvsPatchFieldENS_11surfaceMeshEE22GeometricBoundaryFieldC1ERKNS_14fvBoundaryMeshERKNS_16DimensionedFieldIdS2_EERKNS_4wordE @287
    _ZN4Foam14GeometricFieldIdNS_13fvsPatchFieldENS_11surfaceMeshEE22GeometricBoundaryFieldC1ERKNS_16DimensionedFieldIdS2_EERKS4_ @288
    _ZN4Foam14GeometricFieldIdNS_13fvsPatchFieldENS_11surfaceMeshEEC1ERKNS_3tmpIS3_EE @289
    _ZN4Foam14GeometricFieldIdNS_13fvsPatchFieldENS_11surfaceMeshEEC1ERKNS_4wordERKS3_ @290
    _ZN4Foam14GeometricFieldIdNS_13fvsPatchFieldENS_11surfaceMeshEEC1ERKNS_8IOobjectERKNS_6fvMeshE @291
    _ZN4Foam14GeometricFieldIdNS_13fvsPatchFieldENS_11surfaceMeshEEC1ERKNS_8IOobjectERKNS_6fvMeshERKNS_12dimensionSetERKNS_4wordE @292
    _ZN4Foam14GeometricFieldIdNS_13fvsPatchFieldENS_11surfaceMeshEEC1ERKNS_8IOobjectERKS3_ @293
    _ZN4Foam14GeometricFieldIdNS_13fvsPatchFieldENS_11surfaceMeshEEC1ERKS3_ @294
    _ZN4Foam14GeometricFieldIdNS_13fvsPatchFieldENS_11surfaceMeshEED0Ev @295
    _ZN4Foam14GeometricFieldIdNS_13fvsPatchFieldENS_11surfaceMeshEED1Ev @296
    _ZN4Foam14GeometricFieldIdNS_13fvsPatchFieldENS_11surfaceMeshEEeqERKNS_3tmpIS3_EE @297
    _ZN4Foam14GeometricFieldIdNS_13fvsPatchFieldENS_11surfaceMeshEEmIERKS3_ @298
    _ZN4Foam14GeometricFieldIdNS_13fvsPatchFieldENS_11surfaceMeshEEpLERKS3_ @299
    _ZN4Foam14incompressible15turbulenceModelD0Ev @300
    _ZN4Foam14incompressible15turbulenceModelD1Ev @301
    _ZN4Foam14incompressible15turbulenceModelD2Ev @302
    _ZN4Foam14incompressible8RASModel31adddictionaryConstructorToTableINS0_9RASModels17SpalartAllmarasRCEE3NewERKNS_14GeometricFieldINS_6VectorIdEENS_12fvPatchFieldENS_7volMeshEEERKNS6_IdNS_13fvsPatchFieldENS_11surfaceMeshEEERNS_14transportModelERKNS_4wordE @303
    _ZN4Foam14incompressible8RASModel31adddictionaryConstructorToTableINS0_9RASModels17SpalartAllmarasRCEEC1ERKNS_4wordE @304
    _ZN4Foam14incompressible8RASModelD2Ev @305
    _ZN4Foam14incompressible9RASModels17SpalartAllmarasRC4readEv @306
    _ZN4Foam14incompressible9RASModels17SpalartAllmarasRC5debugE @307 DATA
    _ZN4Foam14incompressible9RASModels17SpalartAllmarasRC7correctEv @308
    _ZN4Foam14incompressible9RASModels17SpalartAllmarasRC8typeNameE @309 DATA
    _ZN4Foam14incompressible9RASModels17SpalartAllmarasRCC1ERKNS_14GeometricFieldINS_6VectorIdEENS_12fvPatchFieldENS_7volMeshEEERKNS3_IdNS_13fvsPatchFieldENS_11surfaceMeshEEERNS_14transportModelERKNS_4wordESK_ @310
    _ZN4Foam14incompressible9RASModels17SpalartAllmarasRCC2ERKNS_14GeometricFieldINS_6VectorIdEENS_12fvPatchFieldENS_7volMeshEEERKNS3_IdNS_13fvsPatchFieldENS_11surfaceMeshEEERNS_14transportModelERKNS_4wordESK_ @311
    _ZN4Foam14incompressible9RASModels17SpalartAllmarasRCD0Ev @312
    _ZN4Foam14incompressible9RASModels17SpalartAllmarasRCD1Ev @313
    _ZN4Foam14incompressible9RASModels27addSpalartAllmarasRCToDebug8readDataERNS_7IstreamE @314
    _ZN4Foam14incompressible9RASModels27addSpalartAllmarasRCToDebugD0Ev @315
    _ZN4Foam14incompressible9RASModels27addSpalartAllmarasRCToDebugD1Ev @316
    _ZN4Foam14incompressible9RASModels28addSpalartAllmarasRCToDebug_E @317 DATA
    _ZN4Foam14incompressible9RASModels57addSpalartAllmarasRCdictionaryConstructorToRASModelTable_E @318 DATA
    _ZN4Foam14primitiveEntryC1IdEERKNS_7keyTypeERKT_ @319
    _ZN4Foam16DimensionedFieldINS_10SymmTensorIdEENS_7volMeshEE13readIfPresentERKNS_4wordE @320
    _ZN4Foam16DimensionedFieldINS_10SymmTensorIdEENS_7volMeshEE9readFieldERKNS_10dictionaryERKNS_4wordE @321
    _ZN4Foam16DimensionedFieldINS_10SymmTensorIdEENS_7volMeshEEC2ERKNS_4wordERKS4_ @322
    _ZN4Foam16DimensionedFieldINS_10SymmTensorIdEENS_7volMeshEED0Ev @323
    _ZN4Foam16DimensionedFieldINS_10SymmTensorIdEENS_7volMeshEED1Ev @324
    _ZN4Foam16DimensionedFieldINS_10SymmTensorIdEENS_7volMeshEED2Ev @325
    _ZN4Foam16DimensionedFieldINS_10SymmTensorIdEENS_7volMeshEEaSERKS4_ @326
    _ZN4Foam16DimensionedFieldINS_15SphericalTensorIdEENS_7volMeshEE13readIfPresentERKNS_4wordE @327
    _ZN4Foam16DimensionedFieldINS_15SphericalTensorIdEENS_7volMeshEE9readFieldERKNS_10dictionaryERKNS_4wordE @328
    _ZN4Foam16DimensionedFieldINS_15SphericalTensorIdEENS_7volMeshEEC2ERKNS_4wordERKS4_ @329
    _ZN4Foam16DimensionedFieldINS_15SphericalTensorIdEENS_7volMeshEED0Ev @330
    _ZN4Foam16DimensionedFieldINS_15SphericalTensorIdEENS_7volMeshEED1Ev @331
    _ZN4Foam16DimensionedFieldINS_15SphericalTensorIdEENS_7volMeshEED2Ev @332
    _ZN4Foam16DimensionedFieldINS_15SphericalTensorIdEENS_7volMeshEEaSERKS4_ @333
    _ZN4Foam16DimensionedFieldINS_6TensorIdEENS_7volMeshEE13readIfPresentERKNS_4wordE @334
    _ZN4Foam16DimensionedFieldINS_6TensorIdEENS_7volMeshEE9readFieldERKNS_10dictionaryERKNS_4wordE @335
    _ZN4Foam16DimensionedFieldINS_6TensorIdEENS_7volMeshEEC2ERKNS_4wordERKS4_ @336
    _ZN4Foam16DimensionedFieldINS_6TensorIdEENS_7volMeshEED0Ev @337
    _ZN4Foam16DimensionedFieldINS_6TensorIdEENS_7volMeshEED1Ev @338
    _ZN4Foam16DimensionedFieldINS_6TensorIdEENS_7volMeshEED2Ev @339
    _ZN4Foam16DimensionedFieldINS_6TensorIdEENS_7volMeshEEaSERKS4_ @340
    _ZN4Foam16DimensionedFieldINS_6VectorIdEENS_11surfaceMeshEED0Ev @341
    _ZN4Foam16DimensionedFieldINS_6VectorIdEENS_11surfaceMeshEED1Ev @342
    _ZN4Foam16DimensionedFieldINS_6VectorIdEENS_11surfaceMeshEED2Ev @343
    _ZN4Foam16DimensionedFieldINS_6VectorIdEENS_11surfaceMeshEEaSERKS4_ @344
    _ZN4Foam16DimensionedFieldINS_6VectorIdEENS_7volMeshEED0Ev @345
    _ZN4Foam16DimensionedFieldINS_6VectorIdEENS_7volMeshEED1Ev @346
    _ZN4Foam16DimensionedFieldINS_6VectorIdEENS_7volMeshEED2Ev @347
    _ZN4Foam16DimensionedFieldIdNS_11surfaceMeshEE13readIfPresentERKNS_4wordE @348
    _ZN4Foam16DimensionedFieldIdNS_11surfaceMeshEE9readFieldERKNS_10dictionaryERKNS_4wordE @349
    _ZN4Foam16DimensionedFieldIdNS_11surfaceMeshEEC2ERKNS_4wordERKS2_ @350
    _ZN4Foam16DimensionedFieldIdNS_11surfaceMeshEED0Ev @351
    _ZN4Foam16DimensionedFieldIdNS_11surfaceMeshEED1Ev @352
    _ZN4Foam16DimensionedFieldIdNS_11surfaceMeshEED2Ev @353
    _ZN4Foam16DimensionedFieldIdNS_11surfaceMeshEEaSERKS2_ @354
    _ZN4Foam16DimensionedFieldIdNS_11surfaceMeshEEmIERKS2_ @355
    _ZN4Foam16DimensionedFieldIdNS_11surfaceMeshEEpLERKS2_ @356
    _ZN4Foam16DimensionedFieldIdNS_7volMeshEE13readIfPresentERKNS_4wordE @357
    _ZN4Foam16DimensionedFieldIdNS_7volMeshEE9readFieldERKNS_10dictionaryERKNS_4wordE @358
    _ZN4Foam16DimensionedFieldIdNS_7volMeshEEC2ERKNS_4wordERKS2_ @359
    _ZN4Foam16DimensionedFieldIdNS_7volMeshEEC2ERKNS_4wordERS2_b @360
    _ZN4Foam16DimensionedFieldIdNS_7volMeshEED0Ev @361
    _ZN4Foam16DimensionedFieldIdNS_7volMeshEED1Ev @362
    _ZN4Foam16DimensionedFieldIdNS_7volMeshEED2Ev @363
    _ZN4Foam16DimensionedFieldIdNS_7volMeshEEaSERKS2_ @364
    _ZN4Foam17SolverPerformanceIdED1Ev @365
    _ZN4Foam17simpleRegIOobjectD0Ev @366
    _ZN4Foam17simpleRegIOobjectD1Ev @367
    _ZN4Foam1TINS_12fvPatchFieldENS_7volMeshEEENS_3tmpINS_14GeometricFieldINS_6TensorIdEET_T0_EEEERKSA_ @368
    _ZN4Foam22reuseTmpGeometricFieldINS_6TensorIdEES2_NS_12fvPatchFieldENS_7volMeshEE3NewERKNS_3tmpINS_14GeometricFieldIS2_S3_S4_EEEERKNS_4wordERKNS_12dimensionSetE @369
    _ZN4Foam22reuseTmpGeometricFieldIddNS_12fvPatchFieldENS_7volMeshEE3NewERKNS_3tmpINS_14GeometricFieldIdS1_S2_EEEERKNS_4wordERKNS_12dimensionSetE @370
    _ZN4Foam2fv10gradSchemeINS_6VectorIdEEE3NewERKNS_6fvMeshERNS_7IstreamE @371
    _ZN4Foam2fv10gradSchemeIdE3NewERKNS_6fvMeshERNS_7IstreamE @372
    _ZN4Foam2fv15laplacianSchemeINS_6VectorIdEEdE3NewERKNS_6fvMeshERNS_7IstreamE @373
    _ZN4Foam2fv15laplacianSchemeIddE3NewERKNS_6fvMeshERNS_7IstreamE @374
    _ZN4Foam2fv16convectionSchemeIdE3NewERKNS_6fvMeshERKNS_14GeometricFieldIdNS_13fvsPatchFieldENS_11surfaceMeshEEERNS_7IstreamE @375
    _ZN4Foam2fv9ddtSchemeIdE3NewERKNS_6fvMeshERNS_7IstreamE @376
    _ZN4Foam2fv9divSchemeINS_6TensorIdEEE3NewERKNS_6fvMeshERNS_7IstreamE @377
    _ZN4Foam3addINS_6TensorIdEES2_dLi9EEEvRNS_5FieldINS_9typeOfSumIT_T0_E4typeEEERKNS_5UListIS5_EERKNS_11VectorSpaceIS6_T1_XT2_EEE @378
    _ZN4Foam3addIddNS_12fvPatchFieldENS_7volMeshEEEvRNS_14GeometricFieldINS_9typeOfSumIT_T0_E4typeET1_T2_EERKNS3_IS5_S9_SA_EERKNS3_IS6_S9_SA_EE @379
    _ZN4Foam3devINS_12fvPatchFieldENS_7volMeshEEENS_3tmpINS_14GeometricFieldINS_10SymmTensorIdEET_T0_EEEERKSA_ @380
    _ZN4Foam3devINS_12fvPatchFieldENS_7volMeshEEENS_3tmpINS_14GeometricFieldINS_6TensorIdEET_T0_EEEERKSA_ @381
    _ZN4Foam3fvc3ddtIdEENS_3tmpINS_14GeometricFieldIT_NS_12fvPatchFieldENS_7volMeshEEEEERKS7_ @382
    _ZN4Foam3fvc3divINS_6TensorIdEEEENS_3tmpINS_14GeometricFieldINS_12innerProductINS_6VectorIdEET_E4typeENS_12fvPatchFieldENS_7volMeshEEEEERKNS4_INS5_IS9_SC_SD_EEEE @383
    _ZN4Foam3fvc3divINS_6TensorIdEEEENS_3tmpINS_14GeometricFieldINS_12innerProductINS_6VectorIdEET_E4typeENS_12fvPatchFieldENS_7volMeshEEEEERKNS5_IS9_SC_SD_EE @384
    _ZN4Foam3fvc3divIdEENS_3tmpINS_14GeometricFieldIT_NS_12fvPatchFieldENS_7volMeshEEEEERKNS3_IdNS_13fvsPatchFieldENS_11surfaceMeshEEERKS7_ @385
    _ZN4Foam3fvc4gradINS_6VectorIdEEEENS_3tmpINS_14GeometricFieldINS_12outerProductIS3_T_E4typeENS_12fvPatchFieldENS_7volMeshEEEEERKNS5_IS7_SA_SB_EE @386
    _ZN4Foam3fvc4gradIdEENS_3tmpINS_14GeometricFieldINS_12outerProductINS_6VectorIdEET_E4typeENS_12fvPatchFieldENS_7volMeshEEEEERKNS3_IS7_SA_SB_EE @387
    _ZN4Foam3fvm2SpIdEENS_3tmpINS_8fvMatrixIT_EEEERKNS_16DimensionedFieldIdNS_7volMeshEEERKNS_14GeometricFieldIS4_NS_12fvPatchFieldES8_EE @388
    _ZN4Foam3fvm3ddtIdEENS_3tmpINS_8fvMatrixIT_EEEERKNS_14GeometricFieldIS4_NS_12fvPatchFieldENS_7volMeshEEE @389
    _ZN4Foam3fvm3divIdEENS_3tmpINS_8fvMatrixIT_EEEERKNS_14GeometricFieldIdNS_13fvsPatchFieldENS_11surfaceMeshEEERKNS7_IS4_NS_12fvPatchFieldENS_7volMeshEEE @390
    _ZN4Foam3fvm9laplacianINS_6VectorIdEEdEENS_3tmpINS_8fvMatrixIT_EEEERKNS_14GeometricFieldIT0_NS_12fvPatchFieldENS_7volMeshEEERKNS9_IS6_SB_SC_EE @391
    _ZN4Foam3fvm9laplacianINS_6VectorIdEEdEENS_3tmpINS_8fvMatrixIT_EEEERKNS_14GeometricFieldIT0_NS_12fvPatchFieldENS_7volMeshEEERKNS9_IS6_SB_SC_EERKNS_4wordE @392
    _ZN4Foam3fvm9laplacianIddEENS_3tmpINS_8fvMatrixIT_EEEERKNS_14GeometricFieldIT0_NS_12fvPatchFieldENS_7volMeshEEERKNS7_IS4_S9_SA_EE @393
    _ZN4Foam3fvm9laplacianIddEENS_3tmpINS_8fvMatrixIT_EEEERKNS_14GeometricFieldIT0_NS_12fvPatchFieldENS_7volMeshEEERKNS7_IS4_S9_SA_EERKNS_4wordE @394
    _ZN4Foam3magINS_6TensorIdEEEEvRNS_5FieldIdEERKNS_5UListIT_EE @395
    _ZN4Foam3magINS_6TensorIdEENS_12fvPatchFieldENS_7volMeshEEENS_3tmpINS_14GeometricFieldIdT0_T1_EEEERKNS5_INS6_IT_S7_S8_EEEE @396
    _ZN4Foam3maxIdNS_12fvPatchFieldENS_7volMeshEEENS_3tmpINS_14GeometricFieldIT_T0_T1_EEEERKS8_RKNS_11dimensionedIS5_EE @397
    _ZN4Foam3minIdNS_12fvPatchFieldENS_7volMeshEEENS_3tmpINS_14GeometricFieldIT_T0_T1_EEEERKS9_RKNS_11dimensionedIS5_EE @398
    _ZN4Foam3powINS_12fvPatchFieldENS_7volMeshEEENS_3tmpINS_14GeometricFieldIdT_T0_EEEERKS8_RKNS_11dimensionedIdEE @399
    _ZN4Foam3sqrIdEENS_11dimensionedINS_12outerProductIT_S3_E4typeEEERKNS1_IS3_EE @400
    _ZN4Foam3sqrIdNS_12fvPatchFieldENS_7volMeshEEENS_3tmpINS_14GeometricFieldINS_12outerProductIT_S6_E4typeET0_T1_EEEERKNS3_INS4_IS6_S9_SA_EEEE @401
    _ZN4Foam3sqrIdNS_12fvPatchFieldENS_7volMeshEEENS_3tmpINS_14GeometricFieldINS_12outerProductIT_S6_E4typeET0_T1_EEEERKNS4_IS6_S9_SA_EE @402
    _ZN4Foam3sqrIdNS_12fvPatchFieldENS_7volMeshEEEvRNS_14GeometricFieldINS_12outerProductIT_S5_E4typeET0_T1_EERKNS3_IS5_S8_S9_EE @403
    _ZN4Foam4ListINS_10SymmTensorIdEEE7setSizeEi @404
    _ZN4Foam4ListINS_10SymmTensorIdEEEC2ERKS3_ @405
    _ZN4Foam4ListINS_10SymmTensorIdEEEC2Ei @406
    _ZN4Foam4ListINS_10SymmTensorIdEEEaSERKNS_6SLListIS2_EE @407
    _ZN4Foam4ListINS_15SphericalTensorIdEEE7setSizeEi @408
    _ZN4Foam4ListINS_15SphericalTensorIdEEEC2ERKS3_ @409
    _ZN4Foam4ListINS_15SphericalTensorIdEEEC2Ei @410
    _ZN4Foam4ListINS_4wordEE7setSizeEi @411
    _ZN4Foam4ListINS_4wordEEC1Ei @412
    _ZN4Foam4ListINS_5tokenEEC2ERKS2_ @413
    _ZN4Foam4ListINS_6TensorIdEEE7setSizeEi @414
    _ZN4Foam4ListINS_6TensorIdEEEC2ERKS3_ @415
    _ZN4Foam4ListINS_6TensorIdEEEC2Ei @416
    _ZN4Foam4ListINS_6TensorIdEEEaSERKNS_5UListIS2_EE @417
    _ZN4Foam4ListINS_6TensorIdEEEaSERKNS_6SLListIS2_EE @418
    _ZN4Foam4ListINS_6VectorIdEEE7setSizeEi @419
    _ZN4Foam4ListINS_6VectorIdEEEC2ERKS3_ @420
    _ZN4Foam4ListINS_6VectorIdEEEC2Ei @421
    _ZN4Foam4ListIPKNS_17LduInterfaceFieldIdEEEC1EiRKS4_ @422
    _ZN4Foam4ListIPKNS_17LduInterfaceFieldIdEEEaSERKS5_ @423
    _ZN4Foam4ListIPNS_12fvPatchFieldINS_10SymmTensorIdEEEEE7setSizeEi @424
    _ZN4Foam4ListIPNS_12fvPatchFieldINS_10SymmTensorIdEEEEEC1EiRKS5_ @425
    _ZN4Foam4ListIPNS_12fvPatchFieldINS_15SphericalTensorIdEEEEE7setSizeEi @426
    _ZN4Foam4ListIPNS_12fvPatchFieldINS_15SphericalTensorIdEEEEEC1EiRKS5_ @427
    _ZN4Foam4ListIPNS_12fvPatchFieldINS_6TensorIdEEEEE7setSizeEi @428
    _ZN4Foam4ListIPNS_12fvPatchFieldINS_6TensorIdEEEEEC1EiRKS5_ @429
    _ZN4Foam4ListIPNS_12fvPatchFieldIdEEE7setSizeEi @430
    _ZN4Foam4ListIPNS_12fvPatchFieldIdEEEC1EiRKS3_ @431
    _ZN4Foam4ListIPNS_13fvsPatchFieldIdEEE7setSizeEi @432
    _ZN4Foam4ListIPNS_13fvsPatchFieldIdEEEC1EiRKS3_ @433
    _ZN4Foam4ListIPNS_5FieldIdEEEC1EiRKS3_ @434
    _ZN4Foam4ListIdE7setSizeEi @435
    _ZN4Foam4ListIdEC2ERKS1_ @436
    _ZN4Foam4ListIdEC2Ei @437
    _ZN4Foam4ListIdEC2EiRKd @438
    _ZN4Foam4atanINS_12fvPatchFieldENS_7volMeshEEENS_3tmpINS_14GeometricFieldIdT_T0_EEEERKS8_ @439
    _ZN4Foam4endlERNS_7OstreamE @440
    _ZN4Foam4nameINS_15SphericalTensorIdEEdLi1EEENS_4wordERKNS_11VectorSpaceIT_T0_XT1_EEE @441
    _ZN4Foam4pow3INS_12fvPatchFieldENS_7volMeshEEENS_3tmpINS_14GeometricFieldIdT_T0_EEEERKS7_ @442
    _ZN4Foam4pow3INS_12fvPatchFieldENS_7volMeshEEENS_3tmpINS_14GeometricFieldIdT_T0_EEEERKS8_ @443
    _ZN4Foam4pow6INS_12fvPatchFieldENS_7volMeshEEENS_3tmpINS_14GeometricFieldIdT_T0_EEEERKS7_ @444
    _ZN4Foam4skewINS_12fvPatchFieldENS_7volMeshEEENS_3tmpINS_14GeometricFieldINS_6TensorIdEET_T0_EEEERKS9_ @445
    _ZN4Foam4skewINS_12fvPatchFieldENS_7volMeshEEENS_3tmpINS_14GeometricFieldINS_6TensorIdEET_T0_EEEERKSA_ @446
    _ZN4Foam4skewINS_12fvPatchFieldENS_7volMeshEEEvRNS_14GeometricFieldINS_6TensorIdEET_T0_EERKS8_ @447
    _ZN4Foam4sqrtINS_12fvPatchFieldENS_7volMeshEEENS_3tmpINS_14GeometricFieldIdT_T0_EEEERKS8_ @448
    _ZN4Foam4symmINS_12fvPatchFieldENS_7volMeshEEENS_3tmpINS_14GeometricFieldINS_10SymmTensorIdEET_T0_EEEERKNS4_INS_6TensorIdEES7_S8_EE @449
    _ZN4Foam4word12stripInvalidEv @450
    _ZN4Foam5FieldINS_10SymmTensorIdEEE3mapERKNS_5UListIS2_EERKNS_11FieldMapperE @451
    _ZN4Foam5FieldINS_10SymmTensorIdEEE3mapERKNS_5UListIS2_EERKNS_4ListINS8_IiEEEERKNS8_INS8_IdEEEE @452
    _ZN4Foam5FieldINS_10SymmTensorIdEEE7autoMapERKNS_11FieldMapperE @453
    _ZN4Foam5FieldINS_10SymmTensorIdEEEC1ERKNS_3tmpIS3_EE @454
    _ZN4Foam5FieldINS_10SymmTensorIdEEEC1ERKNS_4wordERKNS_10dictionaryEi @455
    _ZN4Foam5FieldINS_10SymmTensorIdEEEaSERKNS_3tmpIS3_EE @456
    _ZN4Foam5FieldINS_10SymmTensorIdEEEaSERKS3_ @457
    _ZN4Foam5FieldINS_15SphericalTensorIdEEE3mapERKNS_5UListIS2_EERKNS_11FieldMapperE @458
    _ZN4Foam5FieldINS_15SphericalTensorIdEEE3mapERKNS_5UListIS2_EERKNS_4ListINS8_IiEEEERKNS8_INS8_IdEEEE @459
    _ZN4Foam5FieldINS_15SphericalTensorIdEEE7autoMapERKNS_11FieldMapperE @460
    _ZN4Foam5FieldINS_15SphericalTensorIdEEEC1ERKNS_3tmpIS3_EE @461
    _ZN4Foam5FieldINS_15SphericalTensorIdEEEC1ERKNS_4wordERKNS_10dictionaryEi @462
    _ZN4Foam5FieldINS_15SphericalTensorIdEEEaSERKNS_3tmpIS3_EE @463
    _ZN4Foam5FieldINS_15SphericalTensorIdEEEaSERKS3_ @464
    _ZN4Foam5FieldINS_6TensorIdEEE3mapERKNS_5UListIS2_EERKNS_11FieldMapperE @465
    _ZN4Foam5FieldINS_6TensorIdEEE3mapERKNS_5UListIS2_EERKNS_4ListINS8_IiEEEERKNS8_INS8_IdEEEE @466
    _ZN4Foam5FieldINS_6TensorIdEEE7autoMapERKNS_11FieldMapperE @467
    _ZN4Foam5FieldINS_6TensorIdEEEC1ERKNS_3tmpIS3_EE @468
    _ZN4Foam5FieldINS_6TensorIdEEEC1ERKNS_4wordERKNS_10dictionaryEi @469
    _ZN4Foam5FieldINS_6TensorIdEEEaSERKNS_3tmpIS3_EE @470
    _ZN4Foam5FieldINS_6TensorIdEEEaSERKS3_ @471
    _ZN4Foam5FieldINS_6TensorIdEEEdVERKNS_5UListIdEE @472
    _ZN4Foam5FieldINS_6VectorIdEEE3mapERKNS_5UListIS2_EERKNS_11FieldMapperE @473
    _ZN4Foam5FieldINS_6VectorIdEEE3mapERKNS_5UListIS2_EERKNS_4ListINS8_IiEEEERKNS8_INS8_IdEEEE @474
    _ZN4Foam5FieldINS_6VectorIdEEE6negateEv @475
    _ZN4Foam5FieldINS_6VectorIdEEE7autoMapERKNS_11FieldMapperE @476
    _ZN4Foam5FieldINS_6VectorIdEEEC1ERKNS_3tmpIS3_EE @477
    _ZN4Foam5FieldINS_6VectorIdEEEaSERKNS_3tmpIS3_EE @478
    _ZN4Foam5FieldINS_6VectorIdEEEaSERKS3_ @479
    _ZN4Foam5FieldIdE3mapERKNS_5UListIdEERKNS_11FieldMapperE @480
    _ZN4Foam5FieldIdE3mapERKNS_5UListIdEERKNS_4ListINS6_IiEEEERKNS6_INS6_IdEEEE @481
    _ZN4Foam5FieldIdE7autoMapERKNS_11FieldMapperE @482
    _ZN4Foam5FieldIdEC1ERKNS_3tmpIS1_EE @483
    _ZN4Foam5FieldIdEC1ERKNS_4wordERKNS_10dictionaryEi @484
    _ZN4Foam5FieldIdEaSERKNS_3tmpIS1_EE @485
    _ZN4Foam5FieldIdEaSERKS1_ @486
    _ZN4Foam5FieldIdEpLERKNS_3tmpIS1_EE @487
    _ZN4Foam5solveIdEENS_17SolverPerformanceIdEERKNS_3tmpINS_8fvMatrixIT_EEEE @488
    _ZN4Foam5token5clearEv @489
    _ZN4Foam6divideIdNS_12fvPatchFieldENS_7volMeshEEEvRNS_14GeometricFieldIT_T0_T1_EERKS7_RKNS_11dimensionedIdEE @490
    _ZN4Foam6magSqrINS_10SymmTensorIdEENS_12fvPatchFieldENS_7volMeshEEENS_3tmpINS_14GeometricFieldIdT0_T1_EEEERKNS6_IT_S7_S8_EE @491
    _ZN4Foam6magSqrINS_6TensorIdEEEEvRNS_5FieldIdEERKNS_5UListIT_EE @492
    _ZN4Foam6magSqrINS_6TensorIdEENS_12fvPatchFieldENS_7volMeshEEENS_3tmpINS_14GeometricFieldIdT0_T1_EEEERKNS6_IT_S7_S8_EE @493
    _ZN4Foam6magSqrINS_6VectorIdEENS_12fvPatchFieldENS_7volMeshEEENS_3tmpINS_14GeometricFieldIdT0_T1_EEEERKNS5_INS6_IT_S7_S8_EEEE @494
    _ZN4Foam6reduceIdNS_5maxOpIdEEEEvRKNS_4ListINS_8UPstream11commsStructEEERT_RKT0_ii @495
    _ZN4Foam6reduceIiNS_5sumOpIiEEEEvRKNS_4ListINS_8UPstream11commsStructEEERT_RKT0_ii @496
    _ZN4Foam7IstreamD0Ev @497
    _ZN4Foam7IstreamD1Ev @498
    _ZN4Foam7PtrListINS_12fvPatchFieldINS_10SymmTensorIdEEEEE7setSizeEi @499
    _ZN4Foam7PtrListINS_12fvPatchFieldINS_10SymmTensorIdEEEEED2Ev @500
    _ZN4Foam7PtrListINS_12fvPatchFieldINS_15SphericalTensorIdEEEEE7setSizeEi @501
    _ZN4Foam7PtrListINS_12fvPatchFieldINS_15SphericalTensorIdEEEEED2Ev @502
    _ZN4Foam7PtrListINS_12fvPatchFieldINS_6TensorIdEEEEE7setSizeEi @503
    _ZN4Foam7PtrListINS_12fvPatchFieldINS_6TensorIdEEEEED2Ev @504
    _ZN4Foam7PtrListINS_12fvPatchFieldINS_6VectorIdEEEEED2Ev @505
    _ZN4Foam7PtrListINS_12fvPatchFieldIdEEE7setSizeEi @506
    _ZN4Foam7PtrListINS_12fvPatchFieldIdEEED2Ev @507
    _ZN4Foam7PtrListINS_12fvPatchFieldIdEEEixEi @508
    _ZN4Foam7PtrListINS_13fvsPatchFieldINS_6VectorIdEEEEED2Ev @509
    _ZN4Foam7PtrListINS_13fvsPatchFieldIdEEE7setSizeEi @510
    _ZN4Foam7PtrListINS_13fvsPatchFieldIdEEED2Ev @511
    _ZN4Foam7PtrListINS_5FieldINS_6VectorIdEEEEEC2ERKS5_ @512
    _ZN4Foam7PtrListINS_5FieldINS_6VectorIdEEEEED2Ev @513
    _ZN4Foam7PtrListINS_5FieldIdEEEC2ERKS3_ @514
    _ZN4Foam7PtrListINS_5FieldIdEEED2Ev @515
    _ZN4Foam7PtrListINS_5FieldIdEEEixEi @516
    _ZN4Foam7twoSymmINS_12fvPatchFieldENS_7volMeshEEENS_3tmpINS_14GeometricFieldINS_10SymmTensorIdEET_T0_EEEERKNS3_INS4_INS_6TensorIdEES7_S8_EEEE @517
    _ZN4Foam8IOstream4nameEv @518
    _ZN4Foam8ISstreamD2Ev @519
    _ZN4Foam8ITstreamD2Ev @520
    _ZN4Foam8fvMatrixINS_6VectorIdEEEC1ERKS3_ @521
    _ZN4Foam8fvMatrixINS_6VectorIdEEED0Ev @522
    _ZN4Foam8fvMatrixINS_6VectorIdEEED1Ev @523
    _ZN4Foam8fvMatrixIdE12solveCoupledERKNS_10dictionaryE @524
    _ZN4Foam8fvMatrixIdE5relaxEd @525
    _ZN4Foam8fvMatrixIdE5relaxEv @526
    _ZN4Foam8fvMatrixIdE5solveERKNS_10dictionaryE @527
    _ZN4Foam8fvMatrixIdE6negateEv @528
    _ZN4Foam8fvMatrixIdEC1ERKNS_14GeometricFieldIdNS_12fvPatchFieldENS_7volMeshEEERKNS_12dimensionSetE @529
    _ZN4Foam8fvMatrixIdEC1ERKS1_ @530
    _ZN4Foam8fvMatrixIdED0Ev @531
    _ZN4Foam8fvMatrixIdED1Ev @532
    _ZN4Foam8fvMatrixIdEmIERKS1_ @533
    _ZN4Foam8fvMatrixIdEpLERKS1_ @534
    _ZN4Foam8multiplyINS_10SymmTensorIdEEEEvRNS_5FieldIT_EERKNS_5UListIdEERKNS7_IS4_EE @535
    _ZN4Foam8multiplyINS_12fvPatchFieldENS_7volMeshEEEvRNS_14GeometricFieldIdT_T0_EERKS6_S9_ @536
    _ZN4Foam8multiplyINS_6TensorIdEEEEvRNS_5FieldIT_EERKNS_5UListIdEERKNS7_IS4_EE @537
    _ZN4Foam8multiplyIdNS_12fvPatchFieldENS_7volMeshEEEvRNS_14GeometricFieldIT_T0_T1_EERKNS_11dimensionedIdEERKS7_ @538
    _ZN4Foam8subtractINS_6TensorIdEES2_EEvRNS_5FieldINS_9typeOfSumIT_T0_E4typeEEERKNS_5UListIS5_EERKNSB_IS6_EE @539
    _ZN4Foam9HashTableIPFNS_3tmpINS_12fvPatchFieldINS_10SymmTensorIdEEEEEERKNS_7fvPatchERKNS_16DimensionedFieldIS4_NS_7volMeshEEERKNS_10dictionaryEENS_4wordENS_6string4hashEE4findERKSK_ @540
    _ZN4Foam9HashTableIPFNS_3tmpINS_12fvPatchFieldINS_15SphericalTensorIdEEEEEERKNS_7fvPatchERKNS_16DimensionedFieldIS4_NS_7volMeshEEERKNS_10dictionaryEENS_4wordENS_6string4hashEE4findERKSK_ @541
    _ZN4Foam9HashTableIPFNS_3tmpINS_12fvPatchFieldINS_6TensorIdEEEEEERKNS_7fvPatchERKNS_16DimensionedFieldIS4_NS_7volMeshEEERKNS_10dictionaryEENS_4wordENS_6string4hashEE4findERKSK_ @542
    _ZN4Foam9HashTableIPFNS_3tmpINS_12fvPatchFieldIdEEEERKNS_7fvPatchERKNS_16DimensionedFieldIdNS_7volMeshEEERKNS_10dictionaryEENS_4wordENS_6string4hashEE4findERKSI_ @543
    _ZN4Foam9HashTableIPFNS_3tmpINS_13fvsPatchFieldIdEEEERKNS_7fvPatchERKNS_16DimensionedFieldIdNS_11surfaceMeshEEERKNS_10dictionaryEENS_4wordENS_6string4hashEE4findERKSI_ @544
    _ZN4Foam9HashTableIPFNS_7autoPtrINS_14incompressible8RASModelEEERKNS_14GeometricFieldINS_6VectorIdEENS_12fvPatchFieldENS_7volMeshEEERKNS5_IdNS_13fvsPatchFieldENS_11surfaceMeshEEERNS_14transportModelERKNS_4wordEESK_NS_6string4hashEE6resizeEi @545
    _ZN4Foam9LduMatrixIdddE4diagEv @546
    _ZN4Foam9LduMatrixIdddE5lowerEv @547
    _ZN4Foam9LduMatrixIdddE5upperEv @548
    _ZN4Foam9LduMatrixIdddE6solver12readControlsEv @549
    _ZN4Foam9LduMatrixIdddE6solver3NewERKNS_4wordERKS1_RKNS_10dictionaryE @550
    _ZN4Foam9LduMatrixIdddE6solver4readERKNS_10dictionaryE @551
    _ZN4Foam9LduMatrixIdddE6solverD0Ev @552
    _ZN4Foam9LduMatrixIdddE6solverD1Ev @553
    _ZN4Foam9LduMatrixIdddE6sourceEv @554
    _ZN4Foam9LduMatrixIdddED1Ev @555
    _ZN4FoamdvINS_12fvPatchFieldENS_7volMeshEEENS_3tmpINS_14GeometricFieldIdT_T0_EEEERKNS_11dimensionedIdEERKS8_ @556
    _ZN4FoamdvINS_12fvPatchFieldENS_7volMeshEEENS_3tmpINS_14GeometricFieldIdT_T0_EEEERKS7_RKS8_ @557
    _ZN4FoamdvINS_12fvPatchFieldENS_7volMeshEEENS_3tmpINS_14GeometricFieldIdT_T0_EEEERKS8_SA_ @558
    _ZN4FoamdvIdEENS_11dimensionedIT_EERKS3_RKNS1_IdEE @559
    _ZN4FoamdvIdNS_12fvPatchFieldENS_7volMeshEEENS_3tmpINS_14GeometricFieldIT_T0_T1_EEEERKS8_RKNS_11dimensionedIdEE @560
    _ZN4FoamdvIdNS_12fvPatchFieldENS_7volMeshEEENS_3tmpINS_14GeometricFieldIT_T0_T1_EEEERKS9_RKNS_11dimensionedIdEE @561
    _ZN4FoamlsINS_10SymmTensorIdEEEERNS_7OstreamES4_RKNS_5UListIT_EE @562
    _ZN4FoamlsINS_10SymmTensorIdEEdLi6EEERNS_7OstreamES4_RKNS_11VectorSpaceIT_T0_XT1_EEE @563
    _ZN4FoamlsINS_15SphericalTensorIdEEEERNS_7OstreamES4_RKNS_5UListIT_EE @564
    _ZN4FoamlsINS_4wordEEERNS_7OstreamES3_RKNS_5UListIT_EE @565
    _ZN4FoamlsINS_6TensorIdEEEERNS_7OstreamES4_RKNS_5UListIT_EE @566
    _ZN4FoamlsINS_6TensorIdEEdLi9EEERNS_7OstreamES4_RKNS_11VectorSpaceIT_T0_XT1_EEE @567
    _ZN4FoamlsINS_6VectorIdEEEERNS_7OstreamES4_RKNS_5UListIT_EE @568
    _ZN4FoamlsINS_6VectorIdEEdLi3EEERNS_7OstreamES4_RKNS_11VectorSpaceIT_T0_XT1_EEE @569
    _ZN4FoamlsIdEERNS_7OstreamES2_RKNS_5UListIT_EE @570
    _ZN4FoammiINS_12fvPatchFieldENS_7volMeshEEENS_3tmpINS_14GeometricFieldIdT_T0_EEEERKNS_11dimensionedIdEERKS8_ @571
    _ZN4FoammiINS_12fvPatchFieldENS_7volMeshEEENS_3tmpINS_14GeometricFieldIdT_T0_EEEERKS8_RKNS_11dimensionedIdEE @572
    _ZN4FoammiINS_15SphericalTensorIdEENS_10SymmTensorIdEENS_12fvPatchFieldENS_7volMeshEEENS_3tmpINS_14GeometricFieldINS_9typeOfSumIT_T0_E4typeET1_T2_EEEERKNS7_INS8_ISA_SE_SF_EEEERKNS7_INS8_ISB_SE_SF_EEEE @573
    _ZN4FoammiINS_6VectorIdEEEENS_3tmpINS_8fvMatrixIT_EEEERKS7_RKNS3_INS_14GeometricFieldIS5_NS_12fvPatchFieldENS_7volMeshEEEEE @574
    _ZN4FoammiIdEENS_3tmpINS_8fvMatrixIT_EEEERKNS1_INS_14GeometricFieldIS3_NS_12fvPatchFieldENS_7volMeshEEEEERKS5_ @575
    _ZN4FoammiIdEENS_3tmpINS_8fvMatrixIT_EEEERKS5_RKNS1_INS_14GeometricFieldIS3_NS_12fvPatchFieldENS_7volMeshEEEEE @576
    _ZN4FoammiIdEENS_3tmpINS_8fvMatrixIT_EEEERKS5_S7_ @577
    _ZN4FoammiIddEENS_3tmpINS_5FieldINS_9typeOfSumIT_T0_E4typeEEEEERKNS_5UListIS4_EERKNS1_INS2_IS5_EEEE @578
    _ZN4FoammiIddEENS_3tmpINS_5FieldINS_9typeOfSumIT_T0_E4typeEEEEERKNS_5UListIS4_EERKNSA_IS5_EE @579
    _ZN4FoammiIddNS_12fvPatchFieldENS_7volMeshEEENS_3tmpINS_14GeometricFieldINS_9typeOfSumIT_T0_E4typeET1_T2_EEEERKNS3_INS4_IS6_SA_SB_EEEERKNS4_IS7_SA_SB_EE @580
    _ZN4FoammlINS_10SymmTensorIdEENS_12fvPatchFieldENS_7volMeshEEENS_3tmpINS_14GeometricFieldIT_T0_T1_EEEERKNS5_INS6_IdS8_S9_EEEERKSB_ @581
    _ZN4FoammlINS_12fvPatchFieldENS_7volMeshEEENS_3tmpINS_14GeometricFieldIdT_T0_EEEERKS7_RKS8_ @582
    _ZN4FoammlINS_12fvPatchFieldENS_7volMeshEEENS_3tmpINS_14GeometricFieldIdT_T0_EEEERKS7_SA_ @583
    _ZN4FoammlINS_12fvPatchFieldENS_7volMeshEEENS_3tmpINS_14GeometricFieldIdT_T0_EEEERKS8_RKS7_ @584
    _ZN4FoammlINS_12fvPatchFieldENS_7volMeshEEENS_3tmpINS_14GeometricFieldIdT_T0_EEEERKS8_SA_ @585
    _ZN4FoammlINS_15SphericalTensorIdEEdNS_12fvPatchFieldENS_7volMeshEEENS_3tmpINS_14GeometricFieldINS_12outerProductIT_T0_E4typeET1_T2_EEEERKNS_11dimensionedIS8_EERKNS5_INS6_IS9_SC_SD_EEEE @586
    _ZN4FoammlINS_6TensorIdEEEENS_3tmpINS_5FieldIT_EEEERKNS_5UListIdEERKS7_ @587
    _ZN4FoammlINS_6TensorIdEENS_12fvPatchFieldENS_7volMeshEEENS_3tmpINS_14GeometricFieldIT_T0_T1_EEEERKNS6_IdS8_S9_EERKSB_ @588
    _ZN4FoammlIdNS_12fvPatchFieldENS_7volMeshEEENS_3tmpINS_14GeometricFieldIT_T0_T1_EEEERKNS_11dimensionedIdEERKS8_ @589
    _ZN4FoammlIdNS_12fvPatchFieldENS_7volMeshEEENS_3tmpINS_14GeometricFieldIT_T0_T1_EEEERKNS_11dimensionedIdEERKS9_ @590
    _ZN4FoammlIdNS_12fvPatchFieldENS_7volMeshEEENS_3tmpINS_14GeometricFieldIT_T0_T1_EEEERKS9_RKNS_11dimensionedIdEE @591
    _ZN4FoammlIdNS_12fvPatchFieldENS_7volMeshEEENS_3tmpINS_14GeometricFieldIT_T0_T1_EEEERKdRKS9_ @592
    _ZN4FoamngINS_6VectorIdEEEENS_3tmpINS_8fvMatrixIT_EEEERKS7_ @593
    _ZN4FoamngIdNS_12fvPatchFieldENS_7volMeshEEENS_3tmpINS_14GeometricFieldIT_T0_T1_EEEERKS9_ @594
    _ZN4FoamngIdNS_13fvsPatchFieldENS_11surfaceMeshEEENS_3tmpINS_14GeometricFieldIT_T0_T1_EEEERKS8_ @595
    _ZN4FoamplINS_12fvPatchFieldENS_7volMeshEEENS_3tmpINS_14GeometricFieldIdT_T0_EEEERKNS_11dimensionedIdEERKS7_ @596
    _ZN4FoamplINS_12fvPatchFieldENS_7volMeshEEENS_3tmpINS_14GeometricFieldIdT_T0_EEEERKNS_11dimensionedIdEERKS8_ @597
    _ZN4FoamplINS_12fvPatchFieldENS_7volMeshEEENS_3tmpINS_14GeometricFieldIdT_T0_EEEERKS7_RKNS_11dimensionedIdEE @598
    _ZN4FoamplINS_12fvPatchFieldENS_7volMeshEEENS_3tmpINS_14GeometricFieldIdT_T0_EEEERKS8_RKNS_11dimensionedIdEE @599
    _ZN4FoamplIdEENS_11dimensionedIT_EERKS3_S5_ @600
    _ZN4FoamplIddNS_12fvPatchFieldENS_7volMeshEEENS_3tmpINS_14GeometricFieldINS_9typeOfSumIT_T0_E4typeET1_T2_EEEERKNS3_INS4_IS6_SA_SB_EEEERKNS3_INS4_IS7_SA_SB_EEEE @601
    _ZN4FoamplIddNS_12fvPatchFieldENS_7volMeshEEENS_3tmpINS_14GeometricFieldINS_9typeOfSumIT_T0_E4typeET1_T2_EEEERKNS4_IS6_SA_SB_EERKNS3_INS4_IS7_SA_SB_EEEE @602
    _ZN4FoamplIddNS_12fvPatchFieldENS_7volMeshEEENS_3tmpINS_14GeometricFieldINS_9typeOfSumIT_T0_E4typeET1_T2_EEEERKNS4_IS6_SA_SB_EERKNS4_IS7_SA_SB_EE @603
    _ZN4FoamrsINS_10SLListBaseENS_10SymmTensorIdEEEERNS_7IstreamES5_RNS_5LListIT_T0_EE @604
    _ZN4FoamrsINS_10SLListBaseENS_15SphericalTensorIdEEEERNS_7IstreamES5_RNS_5LListIT_T0_EE @605
    _ZN4FoamrsINS_10SLListBaseENS_6TensorIdEEEERNS_7IstreamES5_RNS_5LListIT_T0_EE @606
    _ZN4FoamrsINS_10SLListBaseEdEERNS_7IstreamES3_RNS_5LListIT_T0_EE @607
    _ZN4FoamrsINS_10SymmTensorIdEEEERNS_7IstreamES4_RNS_4ListIT_EE @608
    _ZN4FoamrsINS_10SymmTensorIdEEdLi6EEERNS_7IstreamES4_RNS_11VectorSpaceIT_T0_XT1_EEE @609
    _ZN4FoamrsINS_15SphericalTensorIdEEEERNS_7IstreamES4_RNS_4ListIT_EE @610
    _ZN4FoamrsINS_15SphericalTensorIdEEdLi1EEERNS_7IstreamES4_RNS_11VectorSpaceIT_T0_XT1_EEE @611
    _ZN4FoamrsINS_6TensorIdEEEERNS_7IstreamES4_RNS_4ListIT_EE @612
    _ZN4FoamrsINS_6TensorIdEEdLi9EEERNS_7IstreamES4_RNS_11VectorSpaceIT_T0_XT1_EEE @613
    _ZN4FoamrsIdEERNS_7IstreamES2_RNS_4ListIT_EE @614
    _ZNK4Foam10DLListBase7crbeginEv @615
    _ZNK4Foam10FieldFieldINS_5FieldEdE9componentEh @616
    _ZNK4Foam10dictionary13readIfPresentIdEEbRKNS_4wordERT_bb @617
    _ZNK4Foam12fvPatchFieldINS_10SymmTensorIdEEE10fixesValueEv @618
    _ZNK4Foam12fvPatchFieldINS_10SymmTensorIdEEE18patchInternalFieldERNS_5FieldIS2_EE @619
    _ZNK4Foam12fvPatchFieldINS_10SymmTensorIdEEE18patchInternalFieldEv @620
    _ZNK4Foam12fvPatchFieldINS_10SymmTensorIdEEE19patchNeighbourFieldEv @621
    _ZNK4Foam12fvPatchFieldINS_10SymmTensorIdEEE19valueBoundaryCoeffsERKNS_3tmpINS_5FieldIdEEEE @622
    _ZNK4Foam12fvPatchFieldINS_10SymmTensorIdEEE19valueInternalCoeffsERKNS_3tmpINS_5FieldIdEEEE @623
    _ZNK4Foam12fvPatchFieldINS_10SymmTensorIdEEE22gradientBoundaryCoeffsERKNS_5FieldIdEE @624
    _ZNK4Foam12fvPatchFieldINS_10SymmTensorIdEEE22gradientBoundaryCoeffsEv @625
    _ZNK4Foam12fvPatchFieldINS_10SymmTensorIdEEE22gradientInternalCoeffsERKNS_5FieldIdEE @626
    _ZNK4Foam12fvPatchFieldINS_10SymmTensorIdEEE22gradientInternalCoeffsEv @627
    _ZNK4Foam12fvPatchFieldINS_10SymmTensorIdEEE4typeEv @628
    _ZNK4Foam12fvPatchFieldINS_10SymmTensorIdEEE5cloneERKNS_16DimensionedFieldIS2_NS_7volMeshEEE @629
    _ZNK4Foam12fvPatchFieldINS_10SymmTensorIdEEE5cloneEv @630
    _ZNK4Foam12fvPatchFieldINS_10SymmTensorIdEEE5writeERNS_7OstreamE @631
    _ZNK4Foam12fvPatchFieldINS_10SymmTensorIdEEE6snGradERKNS_5FieldIdEE @632
    _ZNK4Foam12fvPatchFieldINS_10SymmTensorIdEEE6snGradEv @633
    _ZNK4Foam12fvPatchFieldINS_10SymmTensorIdEEE7coupledEv @634
    _ZNK4Foam12fvPatchFieldINS_15SphericalTensorIdEEE10fixesValueEv @635
    _ZNK4Foam12fvPatchFieldINS_15SphericalTensorIdEEE18patchInternalFieldERNS_5FieldIS2_EE @636
    _ZNK4Foam12fvPatchFieldINS_15SphericalTensorIdEEE18patchInternalFieldEv @637
    _ZNK4Foam12fvPatchFieldINS_15SphericalTensorIdEEE19patchNeighbourFieldEv @638
    _ZNK4Foam12fvPatchFieldINS_15SphericalTensorIdEEE19valueBoundaryCoeffsERKNS_3tmpINS_5FieldIdEEEE @639
    _ZNK4Foam12fvPatchFieldINS_15SphericalTensorIdEEE19valueInternalCoeffsERKNS_3tmpINS_5FieldIdEEEE @640
    _ZNK4Foam12fvPatchFieldINS_15SphericalTensorIdEEE22gradientBoundaryCoeffsERKNS_5FieldIdEE @641
    _ZNK4Foam12fvPatchFieldINS_15SphericalTensorIdEEE22gradientBoundaryCoeffsEv @642
    _ZNK4Foam12fvPatchFieldINS_15SphericalTensorIdEEE22gradientInternalCoeffsERKNS_5FieldIdEE @643
    _ZNK4Foam12fvPatchFieldINS_15SphericalTensorIdEEE22gradientInternalCoeffsEv @644
    _ZNK4Foam12fvPatchFieldINS_15SphericalTensorIdEEE4typeEv @645
    _ZNK4Foam12fvPatchFieldINS_15SphericalTensorIdEEE5cloneERKNS_16DimensionedFieldIS2_NS_7volMeshEEE @646
    _ZNK4Foam12fvPatchFieldINS_15SphericalTensorIdEEE5cloneEv @647
    _ZNK4Foam12fvPatchFieldINS_15SphericalTensorIdEEE5writeERNS_7OstreamE @648
    _ZNK4Foam12fvPatchFieldINS_15SphericalTensorIdEEE6snGradERKNS_5FieldIdEE @649
    _ZNK4Foam12fvPatchFieldINS_15SphericalTensorIdEEE6snGradEv @650
    _ZNK4Foam12fvPatchFieldINS_15SphericalTensorIdEEE7coupledEv @651
    _ZNK4Foam12fvPatchFieldINS_6TensorIdEEE10fixesValueEv @652
    _ZNK4Foam12fvPatchFieldINS_6TensorIdEEE18patchInternalFieldERNS_5FieldIS2_EE @653
    _ZNK4Foam12fvPatchFieldINS_6TensorIdEEE18patchInternalFieldEv @654
    _ZNK4Foam12fvPatchFieldINS_6TensorIdEEE19patchNeighbourFieldEv @655
    _ZNK4Foam12fvPatchFieldINS_6TensorIdEEE19valueBoundaryCoeffsERKNS_3tmpINS_5FieldIdEEEE @656
    _ZNK4Foam12fvPatchFieldINS_6TensorIdEEE19valueInternalCoeffsERKNS_3tmpINS_5FieldIdEEEE @657
    _ZNK4Foam12fvPatchFieldINS_6TensorIdEEE22gradientBoundaryCoeffsERKNS_5FieldIdEE @658
    _ZNK4Foam12fvPatchFieldINS_6TensorIdEEE22gradientBoundaryCoeffsEv @659
    _ZNK4Foam12fvPatchFieldINS_6TensorIdEEE22gradientInternalCoeffsERKNS_5FieldIdEE @660
    _ZNK4Foam12fvPatchFieldINS_6TensorIdEEE22gradientInternalCoeffsEv @661
    _ZNK4Foam12fvPatchFieldINS_6TensorIdEEE4typeEv @662
    _ZNK4Foam12fvPatchFieldINS_6TensorIdEEE5cloneERKNS_16DimensionedFieldIS2_NS_7volMeshEEE @663
    _ZNK4Foam12fvPatchFieldINS_6TensorIdEEE5cloneEv @664
    _ZNK4Foam12fvPatchFieldINS_6TensorIdEEE5writeERNS_7OstreamE @665
    _ZNK4Foam12fvPatchFieldINS_6TensorIdEEE6snGradERKNS_5FieldIdEE @666
    _ZNK4Foam12fvPatchFieldINS_6TensorIdEEE6snGradEv @667
    _ZNK4Foam12fvPatchFieldINS_6TensorIdEEE7coupledEv @668
    _ZNK4Foam12fvPatchFieldINS_6VectorIdEEE10fixesValueEv @669
    _ZNK4Foam12fvPatchFieldINS_6VectorIdEEE18patchInternalFieldERNS_5FieldIS2_EE @670
    _ZNK4Foam12fvPatchFieldINS_6VectorIdEEE18patchInternalFieldEv @671
    _ZNK4Foam12fvPatchFieldINS_6VectorIdEEE19patchNeighbourFieldEv @672
    _ZNK4Foam12fvPatchFieldINS_6VectorIdEEE19valueBoundaryCoeffsERKNS_3tmpINS_5FieldIdEEEE @673
    _ZNK4Foam12fvPatchFieldINS_6VectorIdEEE19valueInternalCoeffsERKNS_3tmpINS_5FieldIdEEEE @674
    _ZNK4Foam12fvPatchFieldINS_6VectorIdEEE22gradientBoundaryCoeffsERKNS_5FieldIdEE @675
    _ZNK4Foam12fvPatchFieldINS_6VectorIdEEE22gradientBoundaryCoeffsEv @676
    _ZNK4Foam12fvPatchFieldINS_6VectorIdEEE22gradientInternalCoeffsERKNS_5FieldIdEE @677
    _ZNK4Foam12fvPatchFieldINS_6VectorIdEEE22gradientInternalCoeffsEv @678
    _ZNK4Foam12fvPatchFieldINS_6VectorIdEEE4typeEv @679
    _ZNK4Foam12fvPatchFieldINS_6VectorIdEEE5cloneERKNS_16DimensionedFieldIS2_NS_7volMeshEEE @680
    _ZNK4Foam12fvPatchFieldINS_6VectorIdEEE5cloneEv @681
    _ZNK4Foam12fvPatchFieldINS_6VectorIdEEE5writeERNS_7OstreamE @682
    _ZNK4Foam12fvPatchFieldINS_6VectorIdEEE6snGradERKNS_5FieldIdEE @683
    _ZNK4Foam12fvPatchFieldINS_6VectorIdEEE6snGradEv @684
    _ZNK4Foam12fvPatchFieldINS_6VectorIdEEE7coupledEv @685
    _ZNK4Foam12fvPatchFieldIdE10fixesValueEv @686
    _ZNK4Foam12fvPatchFieldIdE18patchInternalFieldERNS_5FieldIdEE @687
    _ZNK4Foam12fvPatchFieldIdE18patchInternalFieldEv @688
    _ZNK4Foam12fvPatchFieldIdE19patchNeighbourFieldEv @689
    _ZNK4Foam12fvPatchFieldIdE19valueBoundaryCoeffsERKNS_3tmpINS_5FieldIdEEEE @690
    _ZNK4Foam12fvPatchFieldIdE19valueInternalCoeffsERKNS_3tmpINS_5FieldIdEEEE @691
    _ZNK4Foam12fvPatchFieldIdE22gradientBoundaryCoeffsERKNS_5FieldIdEE @692
    _ZNK4Foam12fvPatchFieldIdE22gradientBoundaryCoeffsEv @693
    _ZNK4Foam12fvPatchFieldIdE22gradientInternalCoeffsERKNS_5FieldIdEE @694
    _ZNK4Foam12fvPatchFieldIdE22gradientInternalCoeffsEv @695
    _ZNK4Foam12fvPatchFieldIdE4typeEv @696
    _ZNK4Foam12fvPatchFieldIdE5cloneERKNS_16DimensionedFieldIdNS_7volMeshEEE @697
    _ZNK4Foam12fvPatchFieldIdE5cloneEv @698
    _ZNK4Foam12fvPatchFieldIdE5writeERNS_7OstreamE @699
    _ZNK4Foam12fvPatchFieldIdE6snGradERKNS_5FieldIdEE @700
    _ZNK4Foam12fvPatchFieldIdE6snGradEv @701
    _ZNK4Foam12fvPatchFieldIdE7coupledEv @702
    _ZNK4Foam13fvsPatchFieldINS_6VectorIdEEE10fixesValueEv @703
    _ZNK4Foam13fvsPatchFieldINS_6VectorIdEEE4typeEv @704
    _ZNK4Foam13fvsPatchFieldINS_6VectorIdEEE5cloneERKNS_16DimensionedFieldIS2_NS_11surfaceMeshEEE @705
    _ZNK4Foam13fvsPatchFieldINS_6VectorIdEEE5cloneEv @706
    _ZNK4Foam13fvsPatchFieldINS_6VectorIdEEE5writeERNS_7OstreamE @707
    _ZNK4Foam13fvsPatchFieldINS_6VectorIdEEE7coupledEv @708
    _ZNK4Foam13fvsPatchFieldIdE10fixesValueEv @709
    _ZNK4Foam13fvsPatchFieldIdE4typeEv @710
    _ZNK4Foam13fvsPatchFieldIdE5cloneERKNS_16DimensionedFieldIdNS_11surfaceMeshEEE @711
    _ZNK4Foam13fvsPatchFieldIdE5cloneEv @712
    _ZNK4Foam13fvsPatchFieldIdE5writeERNS_7OstreamE @713
    _ZNK4Foam13fvsPatchFieldIdE7coupledEv @714
    _ZNK4Foam14DiagonalSolverIdddE4typeEv @715
    _ZNK4Foam14DiagonalSolverIdddE5solveERNS_5FieldIdEE @716
    _ZNK4Foam14GeometricFieldINS_10SymmTensorIdEENS_12fvPatchFieldENS_7volMeshEE12storeOldTimeEv @717
    _ZNK4Foam14GeometricFieldINS_10SymmTensorIdEENS_12fvPatchFieldENS_7volMeshEE13storeOldTimesEv @718
    _ZNK4Foam14GeometricFieldINS_10SymmTensorIdEENS_12fvPatchFieldENS_7volMeshEE22GeometricBoundaryField10writeEntryERKNS_4wordERNS_7OstreamE @719
    _ZNK4Foam14GeometricFieldINS_10SymmTensorIdEENS_12fvPatchFieldENS_7volMeshEE4typeEv @720
    _ZNK4Foam14GeometricFieldINS_10SymmTensorIdEENS_12fvPatchFieldENS_7volMeshEE7oldTimeEv @721
    _ZNK4Foam14GeometricFieldINS_10SymmTensorIdEENS_12fvPatchFieldENS_7volMeshEE9componentEh @722
    _ZNK4Foam14GeometricFieldINS_10SymmTensorIdEENS_12fvPatchFieldENS_7volMeshEE9writeDataERNS_7OstreamE @723
    _ZNK4Foam14GeometricFieldINS_15SphericalTensorIdEENS_12fvPatchFieldENS_7volMeshEE12storeOldTimeEv @724
    _ZNK4Foam14GeometricFieldINS_15SphericalTensorIdEENS_12fvPatchFieldENS_7volMeshEE13storeOldTimesEv @725
    _ZNK4Foam14GeometricFieldINS_15SphericalTensorIdEENS_12fvPatchFieldENS_7volMeshEE22GeometricBoundaryField10writeEntryERKNS_4wordERNS_7OstreamE @726
    _ZNK4Foam14GeometricFieldINS_15SphericalTensorIdEENS_12fvPatchFieldENS_7volMeshEE4typeEv @727
    _ZNK4Foam14GeometricFieldINS_15SphericalTensorIdEENS_12fvPatchFieldENS_7volMeshEE7oldTimeEv @728
    _ZNK4Foam14GeometricFieldINS_15SphericalTensorIdEENS_12fvPatchFieldENS_7volMeshEE9writeDataERNS_7OstreamE @729
    _ZNK4Foam14GeometricFieldINS_6TensorIdEENS_12fvPatchFieldENS_7volMeshEE12storeOldTimeEv @730
    _ZNK4Foam14GeometricFieldINS_6TensorIdEENS_12fvPatchFieldENS_7volMeshEE13storeOldTimesEv @731
    _ZNK4Foam14GeometricFieldINS_6TensorIdEENS_12fvPatchFieldENS_7volMeshEE22GeometricBoundaryField10writeEntryERKNS_4wordERNS_7OstreamE @732
    _ZNK4Foam14GeometricFieldINS_6TensorIdEENS_12fvPatchFieldENS_7volMeshEE4typeEv @733
    _ZNK4Foam14GeometricFieldINS_6TensorIdEENS_12fvPatchFieldENS_7volMeshEE7oldTimeEv @734
    _ZNK4Foam14GeometricFieldINS_6TensorIdEENS_12fvPatchFieldENS_7volMeshEE9componentEh @735
    _ZNK4Foam14GeometricFieldINS_6TensorIdEENS_12fvPatchFieldENS_7volMeshEE9writeDataERNS_7OstreamE @736
    _ZNK4Foam14GeometricFieldINS_6VectorIdEENS_12fvPatchFieldENS_7volMeshEE22GeometricBoundaryField10writeEntryERKNS_4wordERNS_7OstreamE @737
    _ZNK4Foam14GeometricFieldINS_6VectorIdEENS_12fvPatchFieldENS_7volMeshEE4typeEv @738
    _ZNK4Foam14GeometricFieldINS_6VectorIdEENS_12fvPatchFieldENS_7volMeshEE9writeDataERNS_7OstreamE @739
    _ZNK4Foam14GeometricFieldINS_6VectorIdEENS_13fvsPatchFieldENS_11surfaceMeshEE12storeOldTimeEv @740
    _ZNK4Foam14GeometricFieldINS_6VectorIdEENS_13fvsPatchFieldENS_11surfaceMeshEE13storeOldTimesEv @741
    _ZNK4Foam14GeometricFieldINS_6VectorIdEENS_13fvsPatchFieldENS_11surfaceMeshEE22GeometricBoundaryField10writeEntryERKNS_4wordERNS_7OstreamE @742
    _ZNK4Foam14GeometricFieldINS_6VectorIdEENS_13fvsPatchFieldENS_11surfaceMeshEE4typeEv @743
    _ZNK4Foam14GeometricFieldINS_6VectorIdEENS_13fvsPatchFieldENS_11surfaceMeshEE9writeDataERNS_7OstreamE @744
    _ZNK4Foam14GeometricFieldIdNS_12fvPatchFieldENS_7volMeshEE12storeOldTimeEv @745
    _ZNK4Foam14GeometricFieldIdNS_12fvPatchFieldENS_7volMeshEE13storeOldTimesEv @746
    _ZNK4Foam14GeometricFieldIdNS_12fvPatchFieldENS_7volMeshEE22GeometricBoundaryField10interfacesEv @747
    _ZNK4Foam14GeometricFieldIdNS_12fvPatchFieldENS_7volMeshEE22GeometricBoundaryField10writeEntryERKNS_4wordERNS_7OstreamE @748
    _ZNK4Foam14GeometricFieldIdNS_12fvPatchFieldENS_7volMeshEE4typeEv @749
    _ZNK4Foam14GeometricFieldIdNS_12fvPatchFieldENS_7volMeshEE6selectEb @750
    _ZNK4Foam14GeometricFieldIdNS_12fvPatchFieldENS_7volMeshEE7oldTimeEv @751
    _ZNK4Foam14GeometricFieldIdNS_12fvPatchFieldENS_7volMeshEE9writeDataERNS_7OstreamE @752
    _ZNK4Foam14GeometricFieldIdNS_13fvsPatchFieldENS_11surfaceMeshEE12storeOldTimeEv @753
    _ZNK4Foam14GeometricFieldIdNS_13fvsPatchFieldENS_11surfaceMeshEE13storeOldTimesEv @754
    _ZNK4Foam14GeometricFieldIdNS_13fvsPatchFieldENS_11surfaceMeshEE22GeometricBoundaryField10writeEntryERKNS_4wordERNS_7OstreamE @755
    _ZNK4Foam14GeometricFieldIdNS_13fvsPatchFieldENS_11surfaceMeshEE4typeEv @756
    _ZNK4Foam14GeometricFieldIdNS_13fvsPatchFieldENS_11surfaceMeshEE7oldTimeEv @757
    _ZNK4Foam14GeometricFieldIdNS_13fvsPatchFieldENS_11surfaceMeshEE9writeDataERNS_7OstreamE @758
    _ZNK4Foam14incompressible15turbulenceModel4typeEv @759
    _ZNK4Foam14incompressible15turbulenceModel9writeDataERNS_7OstreamE @760
    _ZNK4Foam14incompressible8RASModel5nuEffEv @761
    _ZNK4Foam14incompressible8RASModel9coeffDictEv @762
    _ZNK4Foam14incompressible9RASModels17SpalartAllmarasRC10divDevReffERNS_14GeometricFieldINS_6VectorIdEENS_12fvPatchFieldENS_7volMeshEEE @763
    _ZNK4Foam14incompressible9RASModels17SpalartAllmarasRC11DnuTildaEffEv @764
    _ZNK4Foam14incompressible9RASModels17SpalartAllmarasRC13divDevRhoReffERKNS_14GeometricFieldIdNS_12fvPatchFieldENS_7volMeshEEERNS3_INS_6VectorIdEES4_S5_EE @765
    _ZNK4Foam14incompressible9RASModels17SpalartAllmarasRC1REv @766
    _ZNK4Foam14incompressible9RASModels17SpalartAllmarasRC1kEv @767
    _ZNK4Foam14incompressible9RASModels17SpalartAllmarasRC2fwERKNS_14GeometricFieldIdNS_12fvPatchFieldENS_7volMeshEEE @768
    _ZNK4Foam14incompressible9RASModels17SpalartAllmarasRC3chiEv @769
    _ZNK4Foam14incompressible9RASModels17SpalartAllmarasRC3fr1ERKNS_14GeometricFieldINS_10SymmTensorIdEENS_12fvPatchFieldENS_7volMeshEEERKNS3_INS_6TensorIdEES6_S7_EE @770
    _ZNK4Foam14incompressible9RASModels17SpalartAllmarasRC3fv1ERKNS_14GeometricFieldIdNS_12fvPatchFieldENS_7volMeshEEE @771
    _ZNK4Foam14incompressible9RASModels17SpalartAllmarasRC3fv2ERKNS_14GeometricFieldIdNS_12fvPatchFieldENS_7volMeshEEES8_ @772
    _ZNK4Foam14incompressible9RASModels17SpalartAllmarasRC3fv3ERKNS_14GeometricFieldIdNS_12fvPatchFieldENS_7volMeshEEES8_ @773
    _ZNK4Foam14incompressible9RASModels17SpalartAllmarasRC3nutEv @774
    _ZNK4Foam14incompressible9RASModels17SpalartAllmarasRC4typeEv @775
    _ZNK4Foam14incompressible9RASModels17SpalartAllmarasRC7devReffEv @776
    _ZNK4Foam14incompressible9RASModels17SpalartAllmarasRC7epsilonEv @777
    _ZNK4Foam14incompressible9RASModels27addSpalartAllmarasRCToDebug9writeDataERNS_7OstreamE @778
    _ZNK4Foam14objectRegistry11foundObjectINS_14GeometricFieldINS_6TensorIdEENS_12fvPatchFieldENS_7volMeshEEEEEbRKNS_4wordE @779
    _ZNK4Foam14objectRegistry11foundObjectINS_14GeometricFieldINS_6VectorIdEENS_12fvPatchFieldENS_7volMeshEEEEEbRKNS_4wordE @780
    _ZNK4Foam14objectRegistry12lookupObjectINS_14GeometricFieldINS_6TensorIdEENS_12fvPatchFieldENS_7volMeshEEEEERKT_RKNS_4wordE @781
    _ZNK4Foam14objectRegistry12lookupObjectINS_14GeometricFieldINS_6VectorIdEENS_12fvPatchFieldENS_7volMeshEEEEERKT_RKNS_4wordE @782
    _ZNK4Foam14objectRegistry5namesINS_14GeometricFieldINS_6TensorIdEENS_12fvPatchFieldENS_7volMeshEEEEENS_4ListINS_4wordEEEv @783
    _ZNK4Foam14objectRegistry5namesINS_14GeometricFieldINS_6VectorIdEENS_12fvPatchFieldENS_7volMeshEEEEENS_4ListINS_4wordEEEv @784
    _ZNK4Foam16DimensionedFieldINS_10SymmTensorIdEENS_7volMeshEE4typeEv @785
    _ZNK4Foam16DimensionedFieldINS_10SymmTensorIdEENS_7volMeshEE9writeDataERNS_7OstreamE @786
    _ZNK4Foam16DimensionedFieldINS_10SymmTensorIdEENS_7volMeshEE9writeDataERNS_7OstreamERKNS_4wordE @787
    _ZNK4Foam16DimensionedFieldINS_15SphericalTensorIdEENS_7volMeshEE4typeEv @788
    _ZNK4Foam16DimensionedFieldINS_15SphericalTensorIdEENS_7volMeshEE9writeDataERNS_7OstreamE @789
    _ZNK4Foam16DimensionedFieldINS_15SphericalTensorIdEENS_7volMeshEE9writeDataERNS_7OstreamERKNS_4wordE @790
    _ZNK4Foam16DimensionedFieldINS_6TensorIdEENS_7volMeshEE4typeEv @791
    _ZNK4Foam16DimensionedFieldINS_6TensorIdEENS_7volMeshEE9writeDataERNS_7OstreamE @792
    _ZNK4Foam16DimensionedFieldINS_6TensorIdEENS_7volMeshEE9writeDataERNS_7OstreamERKNS_4wordE @793
    _ZNK4Foam16DimensionedFieldINS_6VectorIdEENS_11surfaceMeshEE4typeEv @794
    _ZNK4Foam16DimensionedFieldINS_6VectorIdEENS_11surfaceMeshEE9writeDataERNS_7OstreamE @795
    _ZNK4Foam16DimensionedFieldINS_6VectorIdEENS_11surfaceMeshEE9writeDataERNS_7OstreamERKNS_4wordE @796
    _ZNK4Foam16DimensionedFieldINS_6VectorIdEENS_7volMeshEE4typeEv @797
    _ZNK4Foam16DimensionedFieldINS_6VectorIdEENS_7volMeshEE9writeDataERNS_7OstreamE @798
    _ZNK4Foam16DimensionedFieldINS_6VectorIdEENS_7volMeshEE9writeDataERNS_7OstreamERKNS_4wordE @799
    _ZNK4Foam16DimensionedFieldIdNS_11surfaceMeshEE4typeEv @800
    _ZNK4Foam16DimensionedFieldIdNS_11surfaceMeshEE9writeDataERNS_7OstreamE @801
    _ZNK4Foam16DimensionedFieldIdNS_11surfaceMeshEE9writeDataERNS_7OstreamERKNS_4wordE @802
    _ZNK4Foam16DimensionedFieldIdNS_7volMeshEE4typeEv @803
    _ZNK4Foam16DimensionedFieldIdNS_7volMeshEE9writeDataERNS_7OstreamE @804
    _ZNK4Foam16DimensionedFieldIdNS_7volMeshEE9writeDataERNS_7OstreamERKNS_4wordE @805
    _ZNK4Foam17SolverPerformanceIdE5printERNS_7OstreamE @806
    _ZNK4Foam2fv10gradSchemeINS_6VectorIdEEE4gradERKNS_14GeometricFieldIS3_NS_12fvPatchFieldENS_7volMeshEEERKNS_4wordE @807
    _ZNK4Foam2fv10gradSchemeIdE4gradERKNS_14GeometricFieldIdNS_12fvPatchFieldENS_7volMeshEEERKNS_4wordE @808
    _ZNK4Foam3tmpINS_12fvPatchFieldINS_10SymmTensorIdEEEEE3ptrEv @809
    _ZNK4Foam3tmpINS_12fvPatchFieldINS_15SphericalTensorIdEEEEE3ptrEv @810
    _ZNK4Foam3tmpINS_12fvPatchFieldINS_6TensorIdEEEEE3ptrEv @811
    _ZNK4Foam3tmpINS_12fvPatchFieldIdEEE3ptrEv @812
    _ZNK4Foam3tmpINS_13fvsPatchFieldIdEEE3ptrEv @813
    _ZNK4Foam3tmpINS_14GeometricFieldINS_10SymmTensorIdEENS_12fvPatchFieldENS_7volMeshEEEE3ptrEv @814
    _ZNK4Foam3tmpINS_14GeometricFieldINS_6TensorIdEENS_12fvPatchFieldENS_7volMeshEEEE3ptrEv @815
    _ZNK4Foam3tmpINS_14GeometricFieldIdNS_12fvPatchFieldENS_7volMeshEEEE3ptrEv @816
    _ZNK4Foam3tmpINS_8fvMatrixIdEEE3ptrEv @817
    _ZNK4Foam5FieldINS_10SymmTensorIdEEE10writeEntryERKNS_4wordERNS_7OstreamE @818
    _ZNK4Foam5FieldINS_15SphericalTensorIdEEE10writeEntryERKNS_4wordERNS_7OstreamE @819
    _ZNK4Foam5FieldINS_6TensorIdEEE10writeEntryERKNS_4wordERNS_7OstreamE @820
    _ZNK4Foam5FieldINS_6VectorIdEEE10writeEntryERKNS_4wordERNS_7OstreamE @821
    _ZNK4Foam5FieldIdE10writeEntryERKNS_4wordERNS_7OstreamE @822
    _ZNK4Foam5UListINS_10SymmTensorIdEEE10writeEntryERNS_7OstreamE @823
    _ZNK4Foam5UListINS_15SphericalTensorIdEEE10writeEntryERNS_7OstreamE @824
    _ZNK4Foam5UListINS_6TensorIdEEE10writeEntryERNS_7OstreamE @825
    _ZNK4Foam5UListINS_6VectorIdEEE10writeEntryERNS_7OstreamE @826
    _ZNK4Foam5UListIdE10writeEntryERNS_7OstreamE @827
    _ZNK4Foam7PtrListINS_12fvPatchFieldINS_6TensorIdEEEEEixEi @828
    _ZNK4Foam7PtrListINS_12fvPatchFieldIdEEEixEi @829
    _ZNK4Foam7PtrListINS_7fvPatchEEixEi @830
    _ZNK4Foam7fvPatch18patchInternalFieldINS_10SymmTensorIdEEEENS_3tmpINS_5FieldIT_EEEERKNS_5UListIS6_EE @831
    _ZNK4Foam7fvPatch18patchInternalFieldINS_6TensorIdEEEENS_3tmpINS_5FieldIT_EEEERKNS_5UListIS6_EE @832
    _ZNK4Foam7fvPatch18patchInternalFieldINS_6TensorIdEEEEvRKNS_5UListIT_EERNS_5FieldIS5_EE @833
    _ZNK4Foam8IOstream4nameEv @834
    _ZNK4Foam8fvMatrixIdE15addBoundaryDiagERNS_5FieldIdEEh @835
    _ZNK4Foam9HashTableIPFNS_3tmpINS_12fvPatchFieldINS_10SymmTensorIdEEEEEERKNS_7fvPatchERKNS_16DimensionedFieldIS4_NS_7volMeshEEEENS_4wordENS_6string4hashEE3tocEv @836
    _ZNK4Foam9HashTableIPFNS_3tmpINS_12fvPatchFieldINS_10SymmTensorIdEEEEEERKNS_7fvPatchERKNS_16DimensionedFieldIS4_NS_7volMeshEEERKNS_10dictionaryEENS_4wordENS_6string4hashEE3tocEv @837
    _ZNK4Foam9HashTableIPFNS_3tmpINS_12fvPatchFieldINS_15SphericalTensorIdEEEEEERKNS_7fvPatchERKNS_16DimensionedFieldIS4_NS_7volMeshEEEENS_4wordENS_6string4hashEE3tocEv @838
    _ZNK4Foam9HashTableIPFNS_3tmpINS_12fvPatchFieldINS_15SphericalTensorIdEEEEEERKNS_7fvPatchERKNS_16DimensionedFieldIS4_NS_7volMeshEEERKNS_10dictionaryEENS_4wordENS_6string4hashEE3tocEv @839
    _ZNK4Foam9HashTableIPFNS_3tmpINS_12fvPatchFieldINS_6TensorIdEEEEEERKNS_7fvPatchERKNS_16DimensionedFieldIS4_NS_7volMeshEEEENS_4wordENS_6string4hashEE3tocEv @840
    _ZNK4Foam9HashTableIPFNS_3tmpINS_12fvPatchFieldINS_6TensorIdEEEEEERKNS_7fvPatchERKNS_16DimensionedFieldIS4_NS_7volMeshEEERKNS_10dictionaryEENS_4wordENS_6string4hashEE3tocEv @841
    _ZNK4Foam9HashTableIPFNS_3tmpINS_12fvPatchFieldIdEEEERKNS_7fvPatchERKNS_16DimensionedFieldIdNS_7volMeshEEEENS_4wordENS_6string4hashEE3tocEv @842
    _ZNK4Foam9HashTableIPFNS_3tmpINS_12fvPatchFieldIdEEEERKNS_7fvPatchERKNS_16DimensionedFieldIdNS_7volMeshEEERKNS_10dictionaryEENS_4wordENS_6string4hashEE3tocEv @843
    _ZNK4Foam9HashTableIPFNS_3tmpINS_13fvsPatchFieldIdEEEERKNS_7fvPatchERKNS_16DimensionedFieldIdNS_11surfaceMeshEEEENS_4wordENS_6string4hashEE3tocEv @844
    _ZNK4Foam9HashTableIPFNS_3tmpINS_13fvsPatchFieldIdEEEERKNS_7fvPatchERKNS_16DimensionedFieldIdNS_11surfaceMeshEEERKNS_10dictionaryEENS_4wordENS_6string4hashEE3tocEv @845
    _ZNK4Foam9HashTableIPFNS_3tmpINS_2fv10gradSchemeINS_6VectorIdEEEEEERKNS_6fvMeshERNS_7IstreamEENS_4wordENS_6string4hashEE3tocEv @846
    _ZNK4Foam9HashTableIPFNS_3tmpINS_2fv10gradSchemeINS_6VectorIdEEEEEERKNS_6fvMeshERNS_7IstreamEENS_4wordENS_6string4hashEE9sortedTocEv @847
    _ZNK4Foam9HashTableIPFNS_3tmpINS_2fv10gradSchemeIdEEEERKNS_6fvMeshERNS_7IstreamEENS_4wordENS_6string4hashEE3tocEv @848
    _ZNK4Foam9HashTableIPFNS_3tmpINS_2fv10gradSchemeIdEEEERKNS_6fvMeshERNS_7IstreamEENS_4wordENS_6string4hashEE9sortedTocEv @849
    _ZNK4Foam9HashTableIPFNS_3tmpINS_2fv15laplacianSchemeINS_6VectorIdEEdEEEERKNS_6fvMeshERNS_7IstreamEENS_4wordENS_6string4hashEE3tocEv @850
    _ZNK4Foam9HashTableIPFNS_3tmpINS_2fv15laplacianSchemeINS_6VectorIdEEdEEEERKNS_6fvMeshERNS_7IstreamEENS_4wordENS_6string4hashEE9sortedTocEv @851
    _ZNK4Foam9HashTableIPFNS_3tmpINS_2fv15laplacianSchemeIddEEEERKNS_6fvMeshERNS_7IstreamEENS_4wordENS_6string4hashEE3tocEv @852
    _ZNK4Foam9HashTableIPFNS_3tmpINS_2fv15laplacianSchemeIddEEEERKNS_6fvMeshERNS_7IstreamEENS_4wordENS_6string4hashEE9sortedTocEv @853
    _ZNK4Foam9HashTableIPFNS_3tmpINS_2fv16convectionSchemeIdEEEERKNS_6fvMeshERKNS_14GeometricFieldIdNS_13fvsPatchFieldENS_11surfaceMeshEEERNS_7IstreamEENS_4wordENS_6string4hashEE3tocEv @854
    _ZNK4Foam9HashTableIPFNS_3tmpINS_2fv16convectionSchemeIdEEEERKNS_6fvMeshERKNS_14GeometricFieldIdNS_13fvsPatchFieldENS_11surfaceMeshEEERNS_7IstreamEENS_4wordENS_6string4hashEE9sortedTocEv @855
    _ZNK4Foam9HashTableIPFNS_3tmpINS_2fv9ddtSchemeIdEEEERKNS_6fvMeshERNS_7IstreamEENS_4wordENS_6string4hashEE3tocEv @856
    _ZNK4Foam9HashTableIPFNS_3tmpINS_2fv9ddtSchemeIdEEEERKNS_6fvMeshERNS_7IstreamEENS_4wordENS_6string4hashEE9sortedTocEv @857
    _ZNK4Foam9HashTableIPFNS_3tmpINS_2fv9divSchemeINS_6TensorIdEEEEEERKNS_6fvMeshERNS_7IstreamEENS_4wordENS_6string4hashEE3tocEv @858
    _ZNK4Foam9HashTableIPFNS_3tmpINS_2fv9divSchemeINS_6TensorIdEEEEEERKNS_6fvMeshERNS_7IstreamEENS_4wordENS_6string4hashEE9sortedTocEv @859
    _ZNK4Foam9HashTableIPFNS_7autoPtrINS_9LduMatrixIdddE6solverEEERKNS_4wordERKS3_RKNS_10dictionaryEES6_NS_6string4hashEE3tocEv @860
    _ZNSs12_S_constructIPcEES0_T_S1_RKSaIcESt20forward_iterator_tag @861
    _ZNSt15basic_stringbufIcSt11char_traitsIcESaIcEED1Ev @862
    _ZSt10__pop_heapIPN4Foam4wordEEvT_S3_S3_ @863
    _ZSt13__adjust_heapIPN4Foam4wordExS1_EvT_T0_S4_T1_ @864
    _ZSt16__insertion_sortIPN4Foam4wordEEvT_S3_ @865
    _ZSt16__introsort_loopIPN4Foam4wordExEvT_S3_T0_ @866
    _ZSt22__move_median_to_firstIPN4Foam4wordEEvT_S3_S3_S3_ @867
    _ZSt25__unguarded_linear_insertIPN4Foam4wordEEvT_ @868
    _ZSt4sortIPN4Foam4wordEEvT_S3_ @869
    _ZSt9make_heapIPN4Foam4wordEEvT_S3_ @870
    _ZSteqIcEN9__gnu_cxx11__enable_ifIXsrSt9__is_charIT_E7__valueEbE6__typeERKSbIS3_St11char_traitsIS3_ESaIS3_EESC_ @871
    _ZStplIcSt11char_traitsIcESaIcEESbIT_T0_T1_EPKS3_RKS6_ @872
    _ZStplIcSt11char_traitsIcESaIcEESbIT_T0_T1_ERKS6_PKS3_ @873
    _ZStplIcSt11char_traitsIcESaIcEESbIT_T0_T1_ERKS6_S8_ @874
    _ZTIN4Foam10DLListBaseE @875 DATA
    _ZTIN4Foam10dictionaryE @876 DATA
    _ZTIN4Foam11regIOobjectE @877 DATA
    _ZTIN4Foam12IOdictionaryE @878 DATA
    _ZTIN4Foam12fvPatchFieldINS_10SymmTensorIdEEEE @879 DATA
    _ZTIN4Foam12fvPatchFieldINS_15SphericalTensorIdEEEE @880 DATA
    _ZTIN4Foam12fvPatchFieldINS_6TensorIdEEEE @881 DATA
    _ZTIN4Foam12fvPatchFieldINS_6VectorIdEEEE @882 DATA
    _ZTIN4Foam12fvPatchFieldIdEE @883 DATA
    _ZTIN4Foam13fvsPatchFieldINS_6VectorIdEEEE @884 DATA
    _ZTIN4Foam13fvsPatchFieldIdEE @885 DATA
    _ZTIN4Foam14DiagonalSolverIdddEE @886 DATA
    _ZTIN4Foam14GeometricFieldINS_10SymmTensorIdEENS_12fvPatchFieldENS_7volMeshEEE @887 DATA
    _ZTIN4Foam14GeometricFieldINS_15SphericalTensorIdEENS_12fvPatchFieldENS_7volMeshEEE @888 DATA
    _ZTIN4Foam14GeometricFieldINS_6TensorIdEENS_12fvPatchFieldENS_7volMeshEEE @889 DATA
    _ZTIN4Foam14GeometricFieldINS_6VectorIdEENS_12fvPatchFieldENS_7volMeshEEE @890 DATA
    _ZTIN4Foam14GeometricFieldINS_6VectorIdEENS_13fvsPatchFieldENS_11surfaceMeshEEE @891 DATA
    _ZTIN4Foam14GeometricFieldIdNS_12fvPatchFieldENS_7volMeshEEE @892 DATA
    _ZTIN4Foam14GeometricFieldIdNS_13fvsPatchFieldENS_11surfaceMeshEEE @893 DATA
    _ZTIN4Foam14dictionaryNameE @894 DATA
    _ZTIN4Foam14incompressible15turbulenceModelE @895 DATA
    _ZTIN4Foam14incompressible8RASModelE @896 DATA
    _ZTIN4Foam14incompressible9RASModels17SpalartAllmarasRCE @897 DATA
    _ZTIN4Foam14incompressible9RASModels27addSpalartAllmarasRCToDebugE @898 DATA
    _ZTIN4Foam16DimensionedFieldINS_10SymmTensorIdEENS_7volMeshEEE @899 DATA
    _ZTIN4Foam16DimensionedFieldINS_15SphericalTensorIdEENS_7volMeshEEE @900 DATA
    _ZTIN4Foam16DimensionedFieldINS_6TensorIdEENS_7volMeshEEE @901 DATA
    _ZTIN4Foam16DimensionedFieldINS_6VectorIdEENS_11surfaceMeshEEE @902 DATA
    _ZTIN4Foam16DimensionedFieldINS_6VectorIdEENS_7volMeshEEE @903 DATA
    _ZTIN4Foam16DimensionedFieldIdNS_11surfaceMeshEEE @904 DATA
    _ZTIN4Foam16DimensionedFieldIdNS_7volMeshEEE @905 DATA
    _ZTIN4Foam17LduInterfaceFieldIdEE @906 DATA
    _ZTIN4Foam17lduInterfaceFieldE @907 DATA
    _ZTIN4Foam17simpleRegIOobjectE @908 DATA
    _ZTIN4Foam4ListINS_10SymmTensorIdEEEE @909 DATA
    _ZTIN4Foam4ListINS_15SphericalTensorIdEEEE @910 DATA
    _ZTIN4Foam4ListINS_6TensorIdEEEE @911 DATA
    _ZTIN4Foam4ListINS_6VectorIdEEEE @912 DATA
    _ZTIN4Foam4ListIdEE @913 DATA
    _ZTIN4Foam5FieldINS_10SymmTensorIdEEEE @914 DATA
    _ZTIN4Foam5FieldINS_15SphericalTensorIdEEEE @915 DATA
    _ZTIN4Foam5FieldINS_6TensorIdEEEE @916 DATA
    _ZTIN4Foam5FieldINS_6VectorIdEEEE @917 DATA
    _ZTIN4Foam5FieldIdEE @918 DATA
    _ZTIN4Foam5UListINS_10SymmTensorIdEEEE @919 DATA
    _ZTIN4Foam5UListINS_15SphericalTensorIdEEEE @920 DATA
    _ZTIN4Foam5UListINS_6TensorIdEEEE @921 DATA
    _ZTIN4Foam5UListINS_6VectorIdEEEE @922 DATA
    _ZTIN4Foam5UListIdEE @923 DATA
    _ZTIN4Foam5token8CompoundINS_4ListINS_10SymmTensorIdEEEEEE @924 DATA
    _ZTIN4Foam5token8CompoundINS_4ListINS_15SphericalTensorIdEEEEEE @925 DATA
    _ZTIN4Foam5token8CompoundINS_4ListINS_6TensorIdEEEEEE @926 DATA
    _ZTIN4Foam5token8CompoundINS_4ListIdEEEE @927 DATA
    _ZTIN4Foam5token8compoundE @928 DATA
    _ZTIN4Foam6ILListINS_10DLListBaseENS_5entryEEE @929 DATA
    _ZTIN4Foam7IDLListINS_5entryEEE @930 DATA
    _ZTIN4Foam7IstreamE @931 DATA
    _ZTIN4Foam7UILListINS_10DLListBaseENS_5entryEEE @932 DATA
    _ZTIN4Foam8IOobjectE @933 DATA
    _ZTIN4Foam8IOstreamE @934 DATA
    _ZTIN4Foam8fvMatrixINS_6VectorIdEEEE @935 DATA
    _ZTIN4Foam8fvMatrixIdEE @936 DATA
    _ZTIN4Foam8refCountE @937 DATA
    _ZTIN4Foam9LduMatrixIdddE6solverE @938 DATA
    _ZTIN4Foam9lduMatrixE @939 DATA
    _ZTISt8bad_cast @940 DATA
    _ZTISt9exception @941 DATA
    _ZTSN4Foam10DLListBaseE @942 DATA
    _ZTSN4Foam10FieldFieldINS_5FieldEdEE @943 DATA
    _ZTSN4Foam10dictionaryE @944 DATA
    _ZTSN4Foam11regIOobjectE @945 DATA
    _ZTSN4Foam12IOdictionaryE @946 DATA
    _ZTSN4Foam12fvPatchFieldINS_10SymmTensorIdEEEE @947 DATA
    _ZTSN4Foam12fvPatchFieldINS_15SphericalTensorIdEEEE @948 DATA
    _ZTSN4Foam12fvPatchFieldINS_6TensorIdEEEE @949 DATA
    _ZTSN4Foam12fvPatchFieldINS_6VectorIdEEEE @950 DATA
    _ZTSN4Foam12fvPatchFieldIdEE @951 DATA
    _ZTSN4Foam13fvsPatchFieldINS_6VectorIdEEEE @952 DATA
    _ZTSN4Foam13fvsPatchFieldIdEE @953 DATA
    _ZTSN4Foam14DiagonalSolverIdddEE @954 DATA
    _ZTSN4Foam14GeometricFieldINS_10SymmTensorIdEENS_12fvPatchFieldENS_7volMeshEEE @955 DATA
    _ZTSN4Foam14GeometricFieldINS_15SphericalTensorIdEENS_12fvPatchFieldENS_7volMeshEEE @956 DATA
    _ZTSN4Foam14GeometricFieldINS_6TensorIdEENS_12fvPatchFieldENS_7volMeshEEE @957 DATA
    _ZTSN4Foam14GeometricFieldINS_6VectorIdEENS_12fvPatchFieldENS_7volMeshEEE @958 DATA
    _ZTSN4Foam14GeometricFieldINS_6VectorIdEENS_13fvsPatchFieldENS_11surfaceMeshEEE @959 DATA
    _ZTSN4Foam14GeometricFieldIdNS_12fvPatchFieldENS_7volMeshEEE @960 DATA
    _ZTSN4Foam14GeometricFieldIdNS_13fvsPatchFieldENS_11surfaceMeshEEE @961 DATA
    _ZTSN4Foam14dictionaryNameE @962 DATA
    _ZTSN4Foam14incompressible15turbulenceModelE @963 DATA
    _ZTSN4Foam14incompressible8RASModelE @964 DATA
    _ZTSN4Foam14incompressible9RASModels17SpalartAllmarasRCE @965 DATA
    _ZTSN4Foam14incompressible9RASModels27addSpalartAllmarasRCToDebugE @966 DATA
    _ZTSN4Foam16DimensionedFieldINS_10SymmTensorIdEENS_7volMeshEEE @967 DATA
    _ZTSN4Foam16DimensionedFieldINS_15SphericalTensorIdEENS_7volMeshEEE @968 DATA
    _ZTSN4Foam16DimensionedFieldINS_6TensorIdEENS_7volMeshEEE @969 DATA
    _ZTSN4Foam16DimensionedFieldINS_6VectorIdEENS_11surfaceMeshEEE @970 DATA
    _ZTSN4Foam16DimensionedFieldINS_6VectorIdEENS_7volMeshEEE @971 DATA
    _ZTSN4Foam16DimensionedFieldIdNS_11surfaceMeshEEE @972 DATA
    _ZTSN4Foam16DimensionedFieldIdNS_7volMeshEEE @973 DATA
    _ZTSN4Foam17LduInterfaceFieldIdEE @974 DATA
    _ZTSN4Foam17lduInterfaceFieldE @975 DATA
    _ZTSN4Foam17simpleRegIOobjectE @976 DATA
    _ZTSN4Foam2fv10gradSchemeINS_6VectorIdEEEE @977 DATA
    _ZTSN4Foam2fv10gradSchemeIdEE @978 DATA
    _ZTSN4Foam2fv15laplacianSchemeINS_6VectorIdEEdEE @979 DATA
    _ZTSN4Foam2fv15laplacianSchemeIddEE @980 DATA
    _ZTSN4Foam2fv16convectionSchemeIdEE @981 DATA
    _ZTSN4Foam2fv9ddtSchemeIdEE @982 DATA
    _ZTSN4Foam2fv9divSchemeINS_6TensorIdEEEE @983 DATA
    _ZTSN4Foam4ListINS_10SymmTensorIdEEEE @984 DATA
    _ZTSN4Foam4ListINS_15SphericalTensorIdEEEE @985 DATA
    _ZTSN4Foam4ListINS_6TensorIdEEEE @986 DATA
    _ZTSN4Foam4ListINS_6VectorIdEEEE @987 DATA
    _ZTSN4Foam4ListIdEE @988 DATA
    _ZTSN4Foam5FieldINS_10SymmTensorIdEEEE @989 DATA
    _ZTSN4Foam5FieldINS_15SphericalTensorIdEEEE @990 DATA
    _ZTSN4Foam5FieldINS_6TensorIdEEEE @991 DATA
    _ZTSN4Foam5FieldINS_6VectorIdEEEE @992 DATA
    _ZTSN4Foam5FieldIdEE @993 DATA
    _ZTSN4Foam5UListINS_10SymmTensorIdEEEE @994 DATA
    _ZTSN4Foam5UListINS_15SphericalTensorIdEEEE @995 DATA
    _ZTSN4Foam5UListINS_6TensorIdEEEE @996 DATA
    _ZTSN4Foam5UListINS_6VectorIdEEEE @997 DATA
    _ZTSN4Foam5UListIdEE @998 DATA
    _ZTSN4Foam5token8CompoundINS_4ListINS_10SymmTensorIdEEEEEE @999 DATA
    _ZTSN4Foam5token8CompoundINS_4ListINS_15SphericalTensorIdEEEEEE @1000 DATA
    _ZTSN4Foam5token8CompoundINS_4ListINS_6TensorIdEEEEEE @1001 DATA
    _ZTSN4Foam5token8CompoundINS_4ListIdEEEE @1002 DATA
    _ZTSN4Foam5token8compoundE @1003 DATA
    _ZTSN4Foam6ILListINS_10DLListBaseENS_5entryEEE @1004 DATA
    _ZTSN4Foam7IDLListINS_5entryEEE @1005 DATA
    _ZTSN4Foam7IstreamE @1006 DATA
    _ZTSN4Foam7UILListINS_10DLListBaseENS_5entryEEE @1007 DATA
    _ZTSN4Foam7fvPatchE @1008 DATA
    _ZTSN4Foam8IOobjectE @1009 DATA
    _ZTSN4Foam8IOstreamE @1010 DATA
    _ZTSN4Foam8fvMatrixINS_6VectorIdEEEE @1011 DATA
    _ZTSN4Foam8fvMatrixIdEE @1012 DATA
    _ZTSN4Foam8refCountE @1013 DATA
    _ZTSN4Foam9LduMatrixIdddE6solverE @1014 DATA
    _ZTSN4Foam9lduMatrixE @1015 DATA
    _ZTSSt8bad_cast @1016 DATA
    _ZTSSt9exception @1017 DATA
    _ZTVN4Foam12fvPatchFieldINS_10SymmTensorIdEEEE @1018 DATA
    _ZTVN4Foam12fvPatchFieldINS_15SphericalTensorIdEEEE @1019 DATA
    _ZTVN4Foam12fvPatchFieldINS_6TensorIdEEEE @1020 DATA
    _ZTVN4Foam12fvPatchFieldINS_6VectorIdEEEE @1021 DATA
    _ZTVN4Foam12fvPatchFieldIdEE @1022 DATA
    _ZTVN4Foam13fvsPatchFieldINS_6VectorIdEEEE @1023 DATA
    _ZTVN4Foam13fvsPatchFieldIdEE @1024 DATA
    _ZTVN4Foam14DiagonalSolverIdddEE @1025 DATA
    _ZTVN4Foam14GeometricFieldINS_10SymmTensorIdEENS_12fvPatchFieldENS_7volMeshEEE @1026 DATA
    _ZTVN4Foam14GeometricFieldINS_15SphericalTensorIdEENS_12fvPatchFieldENS_7volMeshEEE @1027 DATA
    _ZTVN4Foam14GeometricFieldINS_6TensorIdEENS_12fvPatchFieldENS_7volMeshEEE @1028 DATA
    _ZTVN4Foam14GeometricFieldINS_6VectorIdEENS_12fvPatchFieldENS_7volMeshEEE @1029 DATA
    _ZTVN4Foam14GeometricFieldINS_6VectorIdEENS_13fvsPatchFieldENS_11surfaceMeshEEE @1030 DATA
    _ZTVN4Foam14GeometricFieldIdNS_12fvPatchFieldENS_7volMeshEEE @1031 DATA
    _ZTVN4Foam14GeometricFieldIdNS_13fvsPatchFieldENS_11surfaceMeshEEE @1032 DATA
    _ZTVN4Foam14incompressible15turbulenceModelE @1033 DATA
    _ZTVN4Foam14incompressible9RASModels17SpalartAllmarasRCE @1034 DATA
    _ZTVN4Foam14incompressible9RASModels27addSpalartAllmarasRCToDebugE @1035 DATA
    _ZTVN4Foam16DimensionedFieldINS_10SymmTensorIdEENS_7volMeshEEE @1036 DATA
    _ZTVN4Foam16DimensionedFieldINS_15SphericalTensorIdEENS_7volMeshEEE @1037 DATA
    _ZTVN4Foam16DimensionedFieldINS_6TensorIdEENS_7volMeshEEE @1038 DATA
    _ZTVN4Foam16DimensionedFieldINS_6VectorIdEENS_11surfaceMeshEEE @1039 DATA
    _ZTVN4Foam16DimensionedFieldINS_6VectorIdEENS_7volMeshEEE @1040 DATA
    _ZTVN4Foam16DimensionedFieldIdNS_11surfaceMeshEEE @1041 DATA
    _ZTVN4Foam16DimensionedFieldIdNS_7volMeshEEE @1042 DATA
    _ZTVN4Foam17simpleRegIOobjectE @1043 DATA
    _ZTVN4Foam7IstreamE @1044 DATA
    _ZTVN4Foam8fvMatrixINS_6VectorIdEEEE @1045 DATA
    _ZTVN4Foam8fvMatrixIdEE @1046 DATA
    _ZTVN4Foam9LduMatrixIdddE6solverE @1047 DATA
    _ZThn184_N4Foam14incompressible9RASModels17SpalartAllmarasRC4readEv @1048
    _ZThn184_N4Foam14incompressible9RASModels17SpalartAllmarasRCD0Ev @1049
    _ZThn184_N4Foam14incompressible9RASModels17SpalartAllmarasRCD1Ev @1050
    _ZThn184_NK4Foam14incompressible9RASModels17SpalartAllmarasRC4typeEv @1051
    _ZThn280_N4Foam14incompressible9RASModels17SpalartAllmarasRCD0Ev @1052
    _ZThn280_N4Foam14incompressible9RASModels17SpalartAllmarasRCD1Ev @1053
